(lp0
(lp1
F1.0
aF1.0
aF-1.0
aF1.0
aI0
aF1.0
aF1.0
aF-1.0
aF1.0
aF-1.0
aI0
aF-1.0
aF1.0
aI0
aF1.0
aF-1.0
aI0
aF-1.0
aF1.0
aI0
aI0
aI0
aF1.0
aI0
aF1.0
aF-1.0
aF1.0
aI0
aI0
aI0
aF1.0
aF-1.0
aF-1.0
aI0
aF-1.0
aI0
aI0
aF-1.0
aF-1.0
aI0
aF1.0
aI0
aF-1.0
aF-1.0
aF1.0
aF1.0
aF1.0
aF-1.0
aF-1.0
aF1.0
aI0
aF-1.0
aF-1.0
aF-1.0
aF1.0
aF1.0
aF1.0
aF1.0
aF1.0
aF1.0
aF1.0
aF1.0
aF-1.0
aF1.0
aF1.0
aI0
aF1.0
aF-1.0
aF1.0
aF1.0
aI0
aI0
aF-1.0
aF-1.0
aF1.0
aF1.0
aF-1.0
aF1.0
aF1.0
aF-1.0
aI0
aF1.0
aF-1.0
aF1.0
aF-1.0
aF1.0
aI0
aF-1.0
aI0
aF-1.0
aF1.0
aI0
aI0
aF-1.0
aF-1.0
aF1.0
aI0
aF1.0
aF1.0
aa(lp2
F1.0
aF1.0
aF-1.0
aF1.0
aI0
aF1.0
aF1.0
aF-1.0
aF1.0
aF-1.0
aI0
aF-1.0
aF1.0
aI0
aF1.0
aF-1.0
aI0
aF-1.0
aF1.0
aI0
aI0
aI0
aF1.0
aI0
aF1.0
aF-1.0
aF1.0
aI0
aI0
aI0
aF1.0
aF-1.0
aF-1.0
aI0
aF-1.0
aI0
aI0
aF-1.0
aF-1.0
aI0
aF1.0
aI0
aF-1.0
aF-1.0
aF1.0
aF1.0
aF1.0
aF-1.0
aF-1.0
aF1.0
aI0
aF-1.0
aF-1.0
aF-1.0
aF1.0
aF1.0
aF1.0
aF1.0
aF1.0
aF1.0
aF1.0
aF1.0
aF-1.0
aF1.0
aF1.0
aI0
aF1.0
aF-1.0
aF1.0
aF1.0
aI0
aI0
aF-1.0
aF-1.0
aF1.0
aF1.0
aF-1.0
aF1.0
aF1.0
aF-1.0
aI0
aF1.0
aF-1.0
aF1.0
aF-1.0
aF1.0
aI0
aF-1.0
aI0
aF-1.0
aF1.0
aI0
aI0
aF-1.0
aF-1.0
aF1.0
aI0
aF1.0
aF1.0
aa(lp3
F-1.0
aF-1.0
aF1.0
aF-1.0
aI0
aF-1.0
aF-1.0
aF1.0
aF-1.0
aF1.0
aI0
aF1.0
aF-1.0
aI0
aF-1.0
aF1.0
aI0
aF1.0
aF-1.0
aI0
aI0
aI0
aF-1.0
aI0
aF-1.0
aF1.0
aF-1.0
aI0
aI0
aI0
aF-1.0
aF1.0
aF1.0
aI0
aF1.0
aI0
aI0
aF1.0
aF1.0
aI0
aF-1.0
aI0
aF1.0
aF1.0
aF-1.0
aF-1.0
aF-1.0
aF1.0
aF1.0
aF-1.0
aI0
aF1.0
aF1.0
aF1.0
aF-1.0
aF-1.0
aF-1.0
aF-1.0
aF-1.0
aF-1.0
aF-1.0
aF-1.0
aF1.0
aF-1.0
aF-1.0
aI0
aF-1.0
aF1.0
aF-1.0
aF-1.0
aI0
aI0
aF1.0
aF1.0
aF-1.0
aF-1.0
aF1.0
aF-1.0
aF-1.0
aF1.0
aI0
aF-1.0
aF1.0
aF-1.0
aF1.0
aF-1.0
aI0
aF1.0
aI0
aF1.0
aF-1.0
aI0
aI0
aF1.0
aF1.0
aF-1.0
aI0
aF-1.0
aF-1.0
aa(lp4
F1.0
aF1.0
aF-1.0
aF1.0
aI0
aF1.0
aF1.0
aF-1.0
aF1.0
aF-1.0
aI0
aF-1.0
aF1.0
aI0
aF1.0
aF-1.0
aI0
aF-1.0
aF1.0
aI0
aI0
aI0
aF1.0
aI0
aF1.0
aF-1.0
aF1.0
aI0
aI0
aI0
aF1.0
aF-1.0
aF-1.0
aI0
aF-1.0
aI0
aI0
aF-1.0
aF-1.0
aI0
aF1.0
aI0
aF-1.0
aF-1.0
aF1.0
aF1.0
aF1.0
aF-1.0
aF-1.0
aF1.0
aI0
aF-1.0
aF-1.0
aF-1.0
aF1.0
aF1.0
aF1.0
aF1.0
aF1.0
aF1.0
aF1.0
aF1.0
aF-1.0
aF1.0
aF1.0
aI0
aF1.0
aF-1.0
aF1.0
aF1.0
aI0
aI0
aF-1.0
aF-1.0
aF1.0
aF1.0
aF-1.0
aF1.0
aF1.0
aF-1.0
aI0
aF1.0
aF-1.0
aF1.0
aF-1.0
aF1.0
aI0
aF-1.0
aI0
aF-1.0
aF1.0
aI0
aI0
aF-1.0
aF-1.0
aF1.0
aI0
aF1.0
aF1.0
aa(lp5
I0
aI0
aI0
aI0
aF1.0
aI0
aI0
aI0
aI0
aI0
aI0
aI0
aI0
aI0
aI0
aI0
aI0
aI0
aI0
aI0
aI0
aI0
aI0
aI0
aI0
aI0
aI0
aI0
aI0
aI0
aI0
aI0
aI0
aI0
aI0
aI0
aI0
aI0
aI0
aI0
aI0
aI0
aI0
aI0
aI0
aI0
aI0
aI0
aI0
aI0
aI0
aI0
aI0
aI0
aI0
aI0
aI0
aI0
aI0
aI0
aI0
aI0
aI0
aI0
aI0
aI0
aI0
aI0
aI0
aI0
aI0
aI0
aI0
aI0
aI0
aI0
aI0
aI0
aI0
aI0
aI0
aI0
aI0
aI0
aI0
aI0
aI0
aI0
aI0
aI0
aI0
aI0
aI0
aI0
aI0
aI0
aI0
aI0
aI0
aa(lp6
F1.0
aF1.0
aF-1.0
aF1.0
aI0
aF1.0
aF1.0
aF-1.0
aF1.0
aF-1.0
aI0
aF-1.0
aF1.0
aI0
aF1.0
aF-1.0
aI0
aF-1.0
aF1.0
aI0
aI0
aI0
aF1.0
aI0
aF1.0
aF-1.0
aF1.0
aI0
aI0
aI0
aF1.0
aF-1.0
aF-1.0
aI0
aF-1.0
aI0
aI0
aF-1.0
aF-1.0
aI0
aF1.0
aI0
aF-1.0
aF-1.0
aF1.0
aF1.0
aF1.0
aF-1.0
aF-1.0
aF1.0
aI0
aF-1.0
aF-1.0
aF-1.0
aF1.0
aF1.0
aF1.0
aF1.0
aF1.0
aF1.0
aF1.0
aF1.0
aF-1.0
aF1.0
aF1.0
aI0
aF1.0
aF-1.0
aF1.0
aF1.0
aI0
aI0
aF-1.0
aF-1.0
aF1.0
aF1.0
aF-1.0
aF1.0
aF1.0
aF-1.0
aI0
aF1.0
aF-1.0
aF1.0
aF-1.0
aF1.0
aI0
aF-1.0
aI0
aF-1.0
aF1.0
aI0
aI0
aF-1.0
aF-1.0
aF1.0
aI0
aF1.0
aF1.0
aa(lp7
F1.0
aF1.0
aF-1.0
aF1.0
aI0
aF1.0
aF1.0
aF-1.0
aF1.0
aF-1.0
aI0
aF-1.0
aF1.0
aI0
aF1.0
aF-1.0
aI0
aF-1.0
aF1.0
aI0
aI0
aI0
aF1.0
aI0
aF1.0
aF-1.0
aF1.0
aI0
aI0
aI0
aF1.0
aF-1.0
aF-1.0
aI0
aF-1.0
aI0
aI0
aF-1.0
aF-1.0
aI0
aF1.0
aI0
aF-1.0
aF-1.0
aF1.0
aF1.0
aF1.0
aF-1.0
aF-1.0
aF1.0
aI0
aF-1.0
aF-1.0
aF-1.0
aF1.0
aF1.0
aF1.0
aF1.0
aF1.0
aF1.0
aF1.0
aF1.0
aF-1.0
aF1.0
aF1.0
aI0
aF1.0
aF-1.0
aF1.0
aF1.0
aI0
aI0
aF-1.0
aF-1.0
aF1.0
aF1.0
aF-1.0
aF1.0
aF1.0
aF-1.0
aI0
aF1.0
aF-1.0
aF1.0
aF-1.0
aF1.0
aI0
aF-1.0
aI0
aF-1.0
aF1.0
aI0
aI0
aF-1.0
aF-1.0
aF1.0
aI0
aF1.0
aF1.0
aa(lp8
F-1.0
aF-1.0
aF1.0
aF-1.0
aI0
aF-1.0
aF-1.0
aF1.0
aF-1.0
aF1.0
aI0
aF1.0
aF-1.0
aI0
aF-1.0
aF1.0
aI0
aF1.0
aF-1.0
aI0
aI0
aI0
aF-1.0
aI0
aF-1.0
aF1.0
aF-1.0
aI0
aI0
aI0
aF-1.0
aF1.0
aF1.0
aI0
aF1.0
aI0
aI0
aF1.0
aF1.0
aI0
aF-1.0
aI0
aF1.0
aF1.0
aF-1.0
aF-1.0
aF-1.0
aF1.0
aF1.0
aF-1.0
aI0
aF1.0
aF1.0
aF1.0
aF-1.0
aF-1.0
aF-1.0
aF-1.0
aF-1.0
aF-1.0
aF-1.0
aF-1.0
aF1.0
aF-1.0
aF-1.0
aI0
aF-1.0
aF1.0
aF-1.0
aF-1.0
aI0
aI0
aF1.0
aF1.0
aF-1.0
aF-1.0
aF1.0
aF-1.0
aF-1.0
aF1.0
aI0
aF-1.0
aF1.0
aF-1.0
aF1.0
aF-1.0
aI0
aF1.0
aI0
aF1.0
aF-1.0
aI0
aI0
aF1.0
aF1.0
aF-1.0
aI0
aF-1.0
aF-1.0
aa(lp9
F1.0
aF1.0
aF-1.0
aF1.0
aI0
aF1.0
aF1.0
aF-1.0
aF1.0
aF-1.0
aI0
aF-1.0
aF1.0
aI0
aF1.0
aF-1.0
aI0
aF-1.0
aF1.0
aI0
aI0
aI0
aF1.0
aI0
aF1.0
aF-1.0
aF1.0
aI0
aI0
aI0
aF1.0
aF-1.0
aF-1.0
aI0
aF-1.0
aI0
aI0
aF-1.0
aF-1.0
aI0
aF1.0
aI0
aF-1.0
aF-1.0
aF1.0
aF1.0
aF1.0
aF-1.0
aF-1.0
aF1.0
aI0
aF-1.0
aF-1.0
aF-1.0
aF1.0
aF1.0
aF1.0
aF1.0
aF1.0
aF1.0
aF1.0
aF1.0
aF-1.0
aF1.0
aF1.0
aI0
aF1.0
aF-1.0
aF1.0
aF1.0
aI0
aI0
aF-1.0
aF-1.0
aF1.0
aF1.0
aF-1.0
aF1.0
aF1.0
aF-1.0
aI0
aF1.0
aF-1.0
aF1.0
aF-1.0
aF1.0
aI0
aF-1.0
aI0
aF-1.0
aF1.0
aI0
aI0
aF-1.0
aF-1.0
aF1.0
aI0
aF1.0
aF1.0
aa(lp10
F-1.0
aF-1.0
aF1.0
aF-1.0
aI0
aF-1.0
aF-1.0
aF1.0
aF-1.0
aF1.0
aI0
aF1.0
aF-1.0
aI0
aF-1.0
aF1.0
aI0
aF1.0
aF-1.0
aI0
aI0
aI0
aF-1.0
aI0
aF-1.0
aF1.0
aF-1.0
aI0
aI0
aI0
aF-1.0
aF1.0
aF1.0
aI0
aF1.0
aI0
aI0
aF1.0
aF1.0
aI0
aF-1.0
aI0
aF1.0
aF1.0
aF-1.0
aF-1.0
aF-1.0
aF1.0
aF1.0
aF-1.0
aI0
aF1.0
aF1.0
aF1.0
aF-1.0
aF-1.0
aF-1.0
aF-1.0
aF-1.0
aF-1.0
aF-1.0
aF-1.0
aF1.0
aF-1.0
aF-1.0
aI0
aF-1.0
aF1.0
aF-1.0
aF-1.0
aI0
aI0
aF1.0
aF1.0
aF-1.0
aF-1.0
aF1.0
aF-1.0
aF-1.0
aF1.0
aI0
aF-1.0
aF1.0
aF-1.0
aF1.0
aF-1.0
aI0
aF1.0
aI0
aF1.0
aF-1.0
aI0
aI0
aF1.0
aF1.0
aF-1.0
aI0
aF-1.0
aF-1.0
aa(lp11
I0
aI0
aI0
aI0
aI0
aI0
aI0
aI0
aI0
aI0
aF1.0
aI0
aI0
aI0
aI0
aI0
aI0
aI0
aI0
aI0
aI0
aI0
aI0
aI0
aI0
aI0
aI0
aI0
aI0
aI0
aI0
aI0
aI0
aI0
aI0
aI0
aI0
aI0
aI0
aI0
aI0
aI0
aI0
aI0
aI0
aI0
aI0
aI0
aI0
aI0
aI0
aI0
aI0
aI0
aI0
aI0
aI0
aI0
aI0
aI0
aI0
aI0
aI0
aI0
aI0
aI0
aI0
aI0
aI0
aI0
aI0
aI0
aI0
aI0
aI0
aI0
aI0
aI0
aI0
aI0
aI0
aI0
aI0
aI0
aI0
aI0
aI0
aI0
aI0
aI0
aI0
aI0
aI0
aI0
aI0
aI0
aI0
aI0
aI0
aa(lp12
F-1.0
aF-1.0
aF1.0
aF-1.0
aI0
aF-1.0
aF-1.0
aF1.0
aF-1.0
aF1.0
aI0
aF1.0
aF-1.0
aI0
aF-1.0
aF1.0
aI0
aF1.0
aF-1.0
aI0
aI0
aI0
aF-1.0
aI0
aF-1.0
aF1.0
aF-1.0
aI0
aI0
aI0
aF-1.0
aF1.0
aF1.0
aI0
aF1.0
aI0
aI0
aF1.0
aF1.0
aI0
aF-1.0
aI0
aF1.0
aF1.0
aF-1.0
aF-1.0
aF-1.0
aF1.0
aF1.0
aF-1.0
aI0
aF1.0
aF1.0
aF1.0
aF-1.0
aF-1.0
aF-1.0
aF-1.0
aF-1.0
aF-1.0
aF-1.0
aF-1.0
aF1.0
aF-1.0
aF-1.0
aI0
aF-1.0
aF1.0
aF-1.0
aF-1.0
aI0
aI0
aF1.0
aF1.0
aF-1.0
aF-1.0
aF1.0
aF-1.0
aF-1.0
aF1.0
aI0
aF-1.0
aF1.0
aF-1.0
aF1.0
aF-1.0
aI0
aF1.0
aI0
aF1.0
aF-1.0
aI0
aI0
aF1.0
aF1.0
aF-1.0
aI0
aF-1.0
aF-1.0
aa(lp13
F1.0
aF1.0
aF-1.0
aF1.0
aI0
aF1.0
aF1.0
aF-1.0
aF1.0
aF-1.0
aI0
aF-1.0
aF1.0
aI0
aF1.0
aF-1.0
aI0
aF-1.0
aF1.0
aI0
aI0
aI0
aF1.0
aI0
aF1.0
aF-1.0
aF1.0
aI0
aI0
aI0
aF1.0
aF-1.0
aF-1.0
aI0
aF-1.0
aI0
aI0
aF-1.0
aF-1.0
aI0
aF1.0
aI0
aF-1.0
aF-1.0
aF1.0
aF1.0
aF1.0
aF-1.0
aF-1.0
aF1.0
aI0
aF-1.0
aF-1.0
aF-1.0
aF1.0
aF1.0
aF1.0
aF1.0
aF1.0
aF1.0
aF1.0
aF1.0
aF-1.0
aF1.0
aF1.0
aI0
aF1.0
aF-1.0
aF1.0
aF1.0
aI0
aI0
aF-1.0
aF-1.0
aF1.0
aF1.0
aF-1.0
aF1.0
aF1.0
aF-1.0
aI0
aF1.0
aF-1.0
aF1.0
aF-1.0
aF1.0
aI0
aF-1.0
aI0
aF-1.0
aF1.0
aI0
aI0
aF-1.0
aF-1.0
aF1.0
aI0
aF1.0
aF1.0
aa(lp14
I0
aI0
aI0
aI0
aI0
aI0
aI0
aI0
aI0
aI0
aI0
aI0
aI0
aF1.0
aI0
aI0
aI0
aI0
aI0
aI0
aI0
aI0
aI0
aI0
aI0
aI0
aI0
aI0
aI0
aI0
aI0
aI0
aI0
aI0
aI0
aI0
aI0
aI0
aI0
aI0
aI0
aI0
aI0
aI0
aI0
aI0
aI0
aI0
aI0
aI0
aI0
aI0
aI0
aI0
aI0
aI0
aI0
aI0
aI0
aI0
aI0
aI0
aI0
aI0
aI0
aI0
aI0
aI0
aI0
aI0
aI0
aI0
aI0
aI0
aI0
aI0
aI0
aI0
aI0
aI0
aI0
aI0
aI0
aI0
aI0
aI0
aI0
aI0
aI0
aI0
aI0
aI0
aI0
aI0
aI0
aI0
aI0
aI0
aI0
aa(lp15
F1.0
aF1.0
aF-1.0
aF1.0
aI0
aF1.0
aF1.0
aF-1.0
aF1.0
aF-1.0
aI0
aF-1.0
aF1.0
aI0
aF1.0
aF-1.0
aI0
aF-1.0
aF1.0
aI0
aI0
aI0
aF1.0
aI0
aF1.0
aF-1.0
aF1.0
aI0
aI0
aI0
aF1.0
aF-1.0
aF-1.0
aI0
aF-1.0
aI0
aI0
aF-1.0
aF-1.0
aI0
aF1.0
aI0
aF-1.0
aF-1.0
aF1.0
aF1.0
aF1.0
aF-1.0
aF-1.0
aF1.0
aI0
aF-1.0
aF-1.0
aF-1.0
aF1.0
aF1.0
aF1.0
aF1.0
aF1.0
aF1.0
aF1.0
aF1.0
aF-1.0
aF1.0
aF1.0
aI0
aF1.0
aF-1.0
aF1.0
aF1.0
aI0
aI0
aF-1.0
aF-1.0
aF1.0
aF1.0
aF-1.0
aF1.0
aF1.0
aF-1.0
aI0
aF1.0
aF-1.0
aF1.0
aF-1.0
aF1.0
aI0
aF-1.0
aI0
aF-1.0
aF1.0
aI0
aI0
aF-1.0
aF-1.0
aF1.0
aI0
aF1.0
aF1.0
aa(lp16
F-1.0
aF-1.0
aF1.0
aF-1.0
aI0
aF-1.0
aF-1.0
aF1.0
aF-1.0
aF1.0
aI0
aF1.0
aF-1.0
aI0
aF-1.0
aF1.0
aI0
aF1.0
aF-1.0
aI0
aI0
aI0
aF-1.0
aI0
aF-1.0
aF1.0
aF-1.0
aI0
aI0
aI0
aF-1.0
aF1.0
aF1.0
aI0
aF1.0
aI0
aI0
aF1.0
aF1.0
aI0
aF-1.0
aI0
aF1.0
aF1.0
aF-1.0
aF-1.0
aF-1.0
aF1.0
aF1.0
aF-1.0
aI0
aF1.0
aF1.0
aF1.0
aF-1.0
aF-1.0
aF-1.0
aF-1.0
aF-1.0
aF-1.0
aF-1.0
aF-1.0
aF1.0
aF-1.0
aF-1.0
aI0
aF-1.0
aF1.0
aF-1.0
aF-1.0
aI0
aI0
aF1.0
aF1.0
aF-1.0
aF-1.0
aF1.0
aF-1.0
aF-1.0
aF1.0
aI0
aF-1.0
aF1.0
aF-1.0
aF1.0
aF-1.0
aI0
aF1.0
aI0
aF1.0
aF-1.0
aI0
aI0
aF1.0
aF1.0
aF-1.0
aI0
aF-1.0
aF-1.0
aa(lp17
I0
aI0
aI0
aI0
aI0
aI0
aI0
aI0
aI0
aI0
aI0
aI0
aI0
aI0
aI0
aI0
aF1.0
aI0
aI0
aI0
aI0
aI0
aI0
aI0
aI0
aI0
aI0
aI0
aI0
aI0
aI0
aI0
aI0
aI0
aI0
aI0
aI0
aI0
aI0
aI0
aI0
aI0
aI0
aI0
aI0
aI0
aI0
aI0
aI0
aI0
aI0
aI0
aI0
aI0
aI0
aI0
aI0
aI0
aI0
aI0
aI0
aI0
aI0
aI0
aI0
aI0
aI0
aI0
aI0
aI0
aI0
aI0
aI0
aI0
aI0
aI0
aI0
aI0
aI0
aI0
aI0
aI0
aI0
aI0
aI0
aI0
aI0
aI0
aI0
aI0
aI0
aI0
aI0
aI0
aI0
aI0
aI0
aI0
aI0
aa(lp18
F-1.0
aF-1.0
aF1.0
aF-1.0
aI0
aF-1.0
aF-1.0
aF1.0
aF-1.0
aF1.0
aI0
aF1.0
aF-1.0
aI0
aF-1.0
aF1.0
aI0
aF1.0
aF-1.0
aI0
aI0
aI0
aF-1.0
aI0
aF-1.0
aF1.0
aF-1.0
aI0
aI0
aI0
aF-1.0
aF1.0
aF1.0
aI0
aF1.0
aI0
aI0
aF1.0
aF1.0
aI0
aF-1.0
aI0
aF1.0
aF1.0
aF-1.0
aF-1.0
aF-1.0
aF1.0
aF1.0
aF-1.0
aI0
aF1.0
aF1.0
aF1.0
aF-1.0
aF-1.0
aF-1.0
aF-1.0
aF-1.0
aF-1.0
aF-1.0
aF-1.0
aF1.0
aF-1.0
aF-1.0
aI0
aF-1.0
aF1.0
aF-1.0
aF-1.0
aI0
aI0
aF1.0
aF1.0
aF-1.0
aF-1.0
aF1.0
aF-1.0
aF-1.0
aF1.0
aI0
aF-1.0
aF1.0
aF-1.0
aF1.0
aF-1.0
aI0
aF1.0
aI0
aF1.0
aF-1.0
aI0
aI0
aF1.0
aF1.0
aF-1.0
aI0
aF-1.0
aF-1.0
aa(lp19
F1.0
aF1.0
aF-1.0
aF1.0
aI0
aF1.0
aF1.0
aF-1.0
aF1.0
aF-1.0
aI0
aF-1.0
aF1.0
aI0
aF1.0
aF-1.0
aI0
aF-1.0
aF1.0
aI0
aI0
aI0
aF1.0
aI0
aF1.0
aF-1.0
aF1.0
aI0
aI0
aI0
aF1.0
aF-1.0
aF-1.0
aI0
aF-1.0
aI0
aI0
aF-1.0
aF-1.0
aI0
aF1.0
aI0
aF-1.0
aF-1.0
aF1.0
aF1.0
aF1.0
aF-1.0
aF-1.0
aF1.0
aI0
aF-1.0
aF-1.0
aF-1.0
aF1.0
aF1.0
aF1.0
aF1.0
aF1.0
aF1.0
aF1.0
aF1.0
aF-1.0
aF1.0
aF1.0
aI0
aF1.0
aF-1.0
aF1.0
aF1.0
aI0
aI0
aF-1.0
aF-1.0
aF1.0
aF1.0
aF-1.0
aF1.0
aF1.0
aF-1.0
aI0
aF1.0
aF-1.0
aF1.0
aF-1.0
aF1.0
aI0
aF-1.0
aI0
aF-1.0
aF1.0
aI0
aI0
aF-1.0
aF-1.0
aF1.0
aI0
aF1.0
aF1.0
aa(lp20
I0
aI0
aI0
aI0
aI0
aI0
aI0
aI0
aI0
aI0
aI0
aI0
aI0
aI0
aI0
aI0
aI0
aI0
aI0
aF1.0
aI0
aI0
aI0
aI0
aI0
aI0
aI0
aI0
aI0
aI0
aI0
aI0
aI0
aI0
aI0
aI0
aI0
aI0
aI0
aI0
aI0
aI0
aI0
aI0
aI0
aI0
aI0
aI0
aI0
aI0
aI0
aI0
aI0
aI0
aI0
aI0
aI0
aI0
aI0
aI0
aI0
aI0
aI0
aI0
aI0
aI0
aI0
aI0
aI0
aI0
aI0
aI0
aI0
aI0
aI0
aI0
aI0
aI0
aI0
aI0
aI0
aI0
aI0
aI0
aI0
aI0
aI0
aI0
aI0
aI0
aI0
aI0
aI0
aI0
aI0
aI0
aI0
aI0
aI0
aa(lp21
I0
aI0
aI0
aI0
aI0
aI0
aI0
aI0
aI0
aI0
aI0
aI0
aI0
aI0
aI0
aI0
aI0
aI0
aI0
aI0
aF1.0
aI0
aI0
aI0
aI0
aI0
aI0
aI0
aI0
aI0
aI0
aI0
aI0
aI0
aI0
aI0
aI0
aI0
aI0
aI0
aI0
aI0
aI0
aI0
aI0
aI0
aI0
aI0
aI0
aI0
aI0
aI0
aI0
aI0
aI0
aI0
aI0
aI0
aI0
aI0
aI0
aI0
aI0
aI0
aI0
aI0
aI0
aI0
aI0
aI0
aI0
aI0
aI0
aI0
aI0
aI0
aI0
aI0
aI0
aI0
aI0
aI0
aI0
aI0
aI0
aI0
aI0
aI0
aI0
aI0
aI0
aI0
aI0
aI0
aI0
aI0
aI0
aI0
aI0
aa(lp22
I0
aI0
aI0
aI0
aI0
aI0
aI0
aI0
aI0
aI0
aI0
aI0
aI0
aI0
aI0
aI0
aI0
aI0
aI0
aI0
aI0
aF1.0
aI0
aI0
aI0
aI0
aI0
aI0
aI0
aI0
aI0
aI0
aI0
aI0
aI0
aI0
aI0
aI0
aI0
aI0
aI0
aI0
aI0
aI0
aI0
aI0
aI0
aI0
aI0
aI0
aI0
aI0
aI0
aI0
aI0
aI0
aI0
aI0
aI0
aI0
aI0
aI0
aI0
aI0
aI0
aI0
aI0
aI0
aI0
aI0
aI0
aI0
aI0
aI0
aI0
aI0
aI0
aI0
aI0
aI0
aI0
aI0
aI0
aI0
aI0
aI0
aI0
aI0
aI0
aI0
aI0
aI0
aI0
aI0
aI0
aI0
aI0
aI0
aI0
aa(lp23
F1.0
aF1.0
aF-1.0
aF1.0
aI0
aF1.0
aF1.0
aF-1.0
aF1.0
aF-1.0
aI0
aF-1.0
aF1.0
aI0
aF1.0
aF-1.0
aI0
aF-1.0
aF1.0
aI0
aI0
aI0
aF1.0
aI0
aF1.0
aF-1.0
aF1.0
aI0
aI0
aI0
aF1.0
aF-1.0
aF-1.0
aI0
aF-1.0
aI0
aI0
aF-1.0
aF-1.0
aI0
aF1.0
aI0
aF-1.0
aF-1.0
aF1.0
aF1.0
aF1.0
aF-1.0
aF-1.0
aF1.0
aI0
aF-1.0
aF-1.0
aF-1.0
aF1.0
aF1.0
aF1.0
aF1.0
aF1.0
aF1.0
aF1.0
aF1.0
aF-1.0
aF1.0
aF1.0
aI0
aF1.0
aF-1.0
aF1.0
aF1.0
aI0
aI0
aF-1.0
aF-1.0
aF1.0
aF1.0
aF-1.0
aF1.0
aF1.0
aF-1.0
aI0
aF1.0
aF-1.0
aF1.0
aF-1.0
aF1.0
aI0
aF-1.0
aI0
aF-1.0
aF1.0
aI0
aI0
aF-1.0
aF-1.0
aF1.0
aI0
aF1.0
aF1.0
aa(lp24
I0
aI0
aI0
aI0
aI0
aI0
aI0
aI0
aI0
aI0
aI0
aI0
aI0
aI0
aI0
aI0
aI0
aI0
aI0
aI0
aI0
aI0
aI0
aF1.0
aI0
aI0
aI0
aI0
aI0
aI0
aI0
aI0
aI0
aI0
aI0
aI0
aI0
aI0
aI0
aI0
aI0
aI0
aI0
aI0
aI0
aI0
aI0
aI0
aI0
aI0
aI0
aI0
aI0
aI0
aI0
aI0
aI0
aI0
aI0
aI0
aI0
aI0
aI0
aI0
aI0
aI0
aI0
aI0
aI0
aI0
aI0
aI0
aI0
aI0
aI0
aI0
aI0
aI0
aI0
aI0
aI0
aI0
aI0
aI0
aI0
aI0
aI0
aI0
aI0
aI0
aI0
aI0
aI0
aI0
aI0
aI0
aI0
aI0
aI0
aa(lp25
F1.0
aF1.0
aF-1.0
aF1.0
aI0
aF1.0
aF1.0
aF-1.0
aF1.0
aF-1.0
aI0
aF-1.0
aF1.0
aI0
aF1.0
aF-1.0
aI0
aF-1.0
aF1.0
aI0
aI0
aI0
aF1.0
aI0
aF1.0
aF-1.0
aF1.0
aI0
aI0
aI0
aF1.0
aF-1.0
aF-1.0
aI0
aF-1.0
aI0
aI0
aF-1.0
aF-1.0
aI0
aF1.0
aI0
aF-1.0
aF-1.0
aF1.0
aF1.0
aF1.0
aF-1.0
aF-1.0
aF1.0
aI0
aF-1.0
aF-1.0
aF-1.0
aF1.0
aF1.0
aF1.0
aF1.0
aF1.0
aF1.0
aF1.0
aF1.0
aF-1.0
aF1.0
aF1.0
aI0
aF1.0
aF-1.0
aF1.0
aF1.0
aI0
aI0
aF-1.0
aF-1.0
aF1.0
aF1.0
aF-1.0
aF1.0
aF1.0
aF-1.0
aI0
aF1.0
aF-1.0
aF1.0
aF-1.0
aF1.0
aI0
aF-1.0
aI0
aF-1.0
aF1.0
aI0
aI0
aF-1.0
aF-1.0
aF1.0
aI0
aF1.0
aF1.0
aa(lp26
F-1.0
aF-1.0
aF1.0
aF-1.0
aI0
aF-1.0
aF-1.0
aF1.0
aF-1.0
aF1.0
aI0
aF1.0
aF-1.0
aI0
aF-1.0
aF1.0
aI0
aF1.0
aF-1.0
aI0
aI0
aI0
aF-1.0
aI0
aF-1.0
aF1.0
aF-1.0
aI0
aI0
aI0
aF-1.0
aF1.0
aF1.0
aI0
aF1.0
aI0
aI0
aF1.0
aF1.0
aI0
aF-1.0
aI0
aF1.0
aF1.0
aF-1.0
aF-1.0
aF-1.0
aF1.0
aF1.0
aF-1.0
aI0
aF1.0
aF1.0
aF1.0
aF-1.0
aF-1.0
aF-1.0
aF-1.0
aF-1.0
aF-1.0
aF-1.0
aF-1.0
aF1.0
aF-1.0
aF-1.0
aI0
aF-1.0
aF1.0
aF-1.0
aF-1.0
aI0
aI0
aF1.0
aF1.0
aF-1.0
aF-1.0
aF1.0
aF-1.0
aF-1.0
aF1.0
aI0
aF-1.0
aF1.0
aF-1.0
aF1.0
aF-1.0
aI0
aF1.0
aI0
aF1.0
aF-1.0
aI0
aI0
aF1.0
aF1.0
aF-1.0
aI0
aF-1.0
aF-1.0
aa(lp27
F1.0
aF1.0
aF-1.0
aF1.0
aI0
aF1.0
aF1.0
aF-1.0
aF1.0
aF-1.0
aI0
aF-1.0
aF1.0
aI0
aF1.0
aF-1.0
aI0
aF-1.0
aF1.0
aI0
aI0
aI0
aF1.0
aI0
aF1.0
aF-1.0
aF1.0
aI0
aI0
aI0
aF1.0
aF-1.0
aF-1.0
aI0
aF-1.0
aI0
aI0
aF-1.0
aF-1.0
aI0
aF1.0
aI0
aF-1.0
aF-1.0
aF1.0
aF1.0
aF1.0
aF-1.0
aF-1.0
aF1.0
aI0
aF-1.0
aF-1.0
aF-1.0
aF1.0
aF1.0
aF1.0
aF1.0
aF1.0
aF1.0
aF1.0
aF1.0
aF-1.0
aF1.0
aF1.0
aI0
aF1.0
aF-1.0
aF1.0
aF1.0
aI0
aI0
aF-1.0
aF-1.0
aF1.0
aF1.0
aF-1.0
aF1.0
aF1.0
aF-1.0
aI0
aF1.0
aF-1.0
aF1.0
aF-1.0
aF1.0
aI0
aF-1.0
aI0
aF-1.0
aF1.0
aI0
aI0
aF-1.0
aF-1.0
aF1.0
aI0
aF1.0
aF1.0
aa(lp28
I0
aI0
aI0
aI0
aI0
aI0
aI0
aI0
aI0
aI0
aI0
aI0
aI0
aI0
aI0
aI0
aI0
aI0
aI0
aI0
aI0
aI0
aI0
aI0
aI0
aI0
aI0
aF1.0
aI0
aI0
aI0
aI0
aI0
aI0
aI0
aI0
aI0
aI0
aI0
aI0
aI0
aI0
aI0
aI0
aI0
aI0
aI0
aI0
aI0
aI0
aI0
aI0
aI0
aI0
aI0
aI0
aI0
aI0
aI0
aI0
aI0
aI0
aI0
aI0
aI0
aI0
aI0
aI0
aI0
aI0
aI0
aI0
aI0
aI0
aI0
aI0
aI0
aI0
aI0
aI0
aI0
aI0
aI0
aI0
aI0
aI0
aI0
aI0
aI0
aI0
aI0
aI0
aI0
aI0
aI0
aI0
aI0
aI0
aI0
aa(lp29
I0
aI0
aI0
aI0
aI0
aI0
aI0
aI0
aI0
aI0
aI0
aI0
aI0
aI0
aI0
aI0
aI0
aI0
aI0
aI0
aI0
aI0
aI0
aI0
aI0
aI0
aI0
aI0
aF1.0
aI0
aI0
aI0
aI0
aI0
aI0
aI0
aI0
aI0
aI0
aI0
aI0
aI0
aI0
aI0
aI0
aI0
aI0
aI0
aI0
aI0
aI0
aI0
aI0
aI0
aI0
aI0
aI0
aI0
aI0
aI0
aI0
aI0
aI0
aI0
aI0
aI0
aI0
aI0
aI0
aI0
aI0
aI0
aI0
aI0
aI0
aI0
aI0
aI0
aI0
aI0
aI0
aI0
aI0
aI0
aI0
aI0
aI0
aI0
aI0
aI0
aI0
aI0
aI0
aI0
aI0
aI0
aI0
aI0
aI0
aa(lp30
I0
aI0
aI0
aI0
aI0
aI0
aI0
aI0
aI0
aI0
aI0
aI0
aI0
aI0
aI0
aI0
aI0
aI0
aI0
aI0
aI0
aI0
aI0
aI0
aI0
aI0
aI0
aI0
aI0
aF1.0
aI0
aI0
aI0
aI0
aI0
aI0
aI0
aI0
aI0
aI0
aI0
aI0
aI0
aI0
aI0
aI0
aI0
aI0
aI0
aI0
aI0
aI0
aI0
aI0
aI0
aI0
aI0
aI0
aI0
aI0
aI0
aI0
aI0
aI0
aI0
aI0
aI0
aI0
aI0
aI0
aI0
aI0
aI0
aI0
aI0
aI0
aI0
aI0
aI0
aI0
aI0
aI0
aI0
aI0
aI0
aI0
aI0
aI0
aI0
aI0
aI0
aI0
aI0
aI0
aI0
aI0
aI0
aI0
aI0
aa(lp31
F1.0
aF1.0
aF-1.0
aF1.0
aI0
aF1.0
aF1.0
aF-1.0
aF1.0
aF-1.0
aI0
aF-1.0
aF1.0
aI0
aF1.0
aF-1.0
aI0
aF-1.0
aF1.0
aI0
aI0
aI0
aF1.0
aI0
aF1.0
aF-1.0
aF1.0
aI0
aI0
aI0
aF1.0
aF-1.0
aF-1.0
aI0
aF-1.0
aI0
aI0
aF-1.0
aF-1.0
aI0
aF1.0
aI0
aF-1.0
aF-1.0
aF1.0
aF1.0
aF1.0
aF-1.0
aF-1.0
aF1.0
aI0
aF-1.0
aF-1.0
aF-1.0
aF1.0
aF1.0
aF1.0
aF1.0
aF1.0
aF1.0
aF1.0
aF1.0
aF-1.0
aF1.0
aF1.0
aI0
aF1.0
aF-1.0
aF1.0
aF1.0
aI0
aI0
aF-1.0
aF-1.0
aF1.0
aF1.0
aF-1.0
aF1.0
aF1.0
aF-1.0
aI0
aF1.0
aF-1.0
aF1.0
aF-1.0
aF1.0
aI0
aF-1.0
aI0
aF-1.0
aF1.0
aI0
aI0
aF-1.0
aF-1.0
aF1.0
aI0
aF1.0
aF1.0
aa(lp32
F-1.0
aF-1.0
aF1.0
aF-1.0
aI0
aF-1.0
aF-1.0
aF1.0
aF-1.0
aF1.0
aI0
aF1.0
aF-1.0
aI0
aF-1.0
aF1.0
aI0
aF1.0
aF-1.0
aI0
aI0
aI0
aF-1.0
aI0
aF-1.0
aF1.0
aF-1.0
aI0
aI0
aI0
aF-1.0
aF1.0
aF1.0
aI0
aF1.0
aI0
aI0
aF1.0
aF1.0
aI0
aF-1.0
aI0
aF1.0
aF1.0
aF-1.0
aF-1.0
aF-1.0
aF1.0
aF1.0
aF-1.0
aI0
aF1.0
aF1.0
aF1.0
aF-1.0
aF-1.0
aF-1.0
aF-1.0
aF-1.0
aF-1.0
aF-1.0
aF-1.0
aF1.0
aF-1.0
aF-1.0
aI0
aF-1.0
aF1.0
aF-1.0
aF-1.0
aI0
aI0
aF1.0
aF1.0
aF-1.0
aF-1.0
aF1.0
aF-1.0
aF-1.0
aF1.0
aI0
aF-1.0
aF1.0
aF-1.0
aF1.0
aF-1.0
aI0
aF1.0
aI0
aF1.0
aF-1.0
aI0
aI0
aF1.0
aF1.0
aF-1.0
aI0
aF-1.0
aF-1.0
aa(lp33
F-1.0
aF-1.0
aF1.0
aF-1.0
aI0
aF-1.0
aF-1.0
aF1.0
aF-1.0
aF1.0
aI0
aF1.0
aF-1.0
aI0
aF-1.0
aF1.0
aI0
aF1.0
aF-1.0
aI0
aI0
aI0
aF-1.0
aI0
aF-1.0
aF1.0
aF-1.0
aI0
aI0
aI0
aF-1.0
aF1.0
aF1.0
aI0
aF1.0
aI0
aI0
aF1.0
aF1.0
aI0
aF-1.0
aI0
aF1.0
aF1.0
aF-1.0
aF-1.0
aF-1.0
aF1.0
aF1.0
aF-1.0
aI0
aF1.0
aF1.0
aF1.0
aF-1.0
aF-1.0
aF-1.0
aF-1.0
aF-1.0
aF-1.0
aF-1.0
aF-1.0
aF1.0
aF-1.0
aF-1.0
aI0
aF-1.0
aF1.0
aF-1.0
aF-1.0
aI0
aI0
aF1.0
aF1.0
aF-1.0
aF-1.0
aF1.0
aF-1.0
aF-1.0
aF1.0
aI0
aF-1.0
aF1.0
aF-1.0
aF1.0
aF-1.0
aI0
aF1.0
aI0
aF1.0
aF-1.0
aI0
aI0
aF1.0
aF1.0
aF-1.0
aI0
aF-1.0
aF-1.0
aa(lp34
I0
aI0
aI0
aI0
aI0
aI0
aI0
aI0
aI0
aI0
aI0
aI0
aI0
aI0
aI0
aI0
aI0
aI0
aI0
aI0
aI0
aI0
aI0
aI0
aI0
aI0
aI0
aI0
aI0
aI0
aI0
aI0
aI0
aF1.0
aI0
aI0
aI0
aI0
aI0
aI0
aI0
aI0
aI0
aI0
aI0
aI0
aI0
aI0
aI0
aI0
aI0
aI0
aI0
aI0
aI0
aI0
aI0
aI0
aI0
aI0
aI0
aI0
aI0
aI0
aI0
aI0
aI0
aI0
aI0
aI0
aI0
aI0
aI0
aI0
aI0
aI0
aI0
aI0
aI0
aI0
aI0
aI0
aI0
aI0
aI0
aI0
aI0
aI0
aI0
aI0
aI0
aI0
aI0
aI0
aI0
aI0
aI0
aI0
aI0
aa(lp35
F-1.0
aF-1.0
aF1.0
aF-1.0
aI0
aF-1.0
aF-1.0
aF1.0
aF-1.0
aF1.0
aI0
aF1.0
aF-1.0
aI0
aF-1.0
aF1.0
aI0
aF1.0
aF-1.0
aI0
aI0
aI0
aF-1.0
aI0
aF-1.0
aF1.0
aF-1.0
aI0
aI0
aI0
aF-1.0
aF1.0
aF1.0
aI0
aF1.0
aI0
aI0
aF1.0
aF1.0
aI0
aF-1.0
aI0
aF1.0
aF1.0
aF-1.0
aF-1.0
aF-1.0
aF1.0
aF1.0
aF-1.0
aI0
aF1.0
aF1.0
aF1.0
aF-1.0
aF-1.0
aF-1.0
aF-1.0
aF-1.0
aF-1.0
aF-1.0
aF-1.0
aF1.0
aF-1.0
aF-1.0
aI0
aF-1.0
aF1.0
aF-1.0
aF-1.0
aI0
aI0
aF1.0
aF1.0
aF-1.0
aF-1.0
aF1.0
aF-1.0
aF-1.0
aF1.0
aI0
aF-1.0
aF1.0
aF-1.0
aF1.0
aF-1.0
aI0
aF1.0
aI0
aF1.0
aF-1.0
aI0
aI0
aF1.0
aF1.0
aF-1.0
aI0
aF-1.0
aF-1.0
aa(lp36
I0
aI0
aI0
aI0
aI0
aI0
aI0
aI0
aI0
aI0
aI0
aI0
aI0
aI0
aI0
aI0
aI0
aI0
aI0
aI0
aI0
aI0
aI0
aI0
aI0
aI0
aI0
aI0
aI0
aI0
aI0
aI0
aI0
aI0
aI0
aF1.0
aI0
aI0
aI0
aI0
aI0
aI0
aI0
aI0
aI0
aI0
aI0
aI0
aI0
aI0
aI0
aI0
aI0
aI0
aI0
aI0
aI0
aI0
aI0
aI0
aI0
aI0
aI0
aI0
aI0
aI0
aI0
aI0
aI0
aI0
aI0
aI0
aI0
aI0
aI0
aI0
aI0
aI0
aI0
aI0
aI0
aI0
aI0
aI0
aI0
aI0
aI0
aI0
aI0
aI0
aI0
aI0
aI0
aI0
aI0
aI0
aI0
aI0
aI0
aa(lp37
I0
aI0
aI0
aI0
aI0
aI0
aI0
aI0
aI0
aI0
aI0
aI0
aI0
aI0
aI0
aI0
aI0
aI0
aI0
aI0
aI0
aI0
aI0
aI0
aI0
aI0
aI0
aI0
aI0
aI0
aI0
aI0
aI0
aI0
aI0
aI0
aF1.0
aI0
aI0
aI0
aI0
aI0
aI0
aI0
aI0
aI0
aI0
aI0
aI0
aI0
aI0
aI0
aI0
aI0
aI0
aI0
aI0
aI0
aI0
aI0
aI0
aI0
aI0
aI0
aI0
aI0
aI0
aI0
aI0
aI0
aI0
aI0
aI0
aI0
aI0
aI0
aI0
aI0
aI0
aI0
aI0
aI0
aI0
aI0
aI0
aI0
aI0
aI0
aI0
aI0
aI0
aI0
aI0
aI0
aI0
aI0
aI0
aI0
aI0
aa(lp38
F-1.0
aF-1.0
aF1.0
aF-1.0
aI0
aF-1.0
aF-1.0
aF1.0
aF-1.0
aF1.0
aI0
aF1.0
aF-1.0
aI0
aF-1.0
aF1.0
aI0
aF1.0
aF-1.0
aI0
aI0
aI0
aF-1.0
aI0
aF-1.0
aF1.0
aF-1.0
aI0
aI0
aI0
aF-1.0
aF1.0
aF1.0
aI0
aF1.0
aI0
aI0
aF1.0
aF1.0
aI0
aF-1.0
aI0
aF1.0
aF1.0
aF-1.0
aF-1.0
aF-1.0
aF1.0
aF1.0
aF-1.0
aI0
aF1.0
aF1.0
aF1.0
aF-1.0
aF-1.0
aF-1.0
aF-1.0
aF-1.0
aF-1.0
aF-1.0
aF-1.0
aF1.0
aF-1.0
aF-1.0
aI0
aF-1.0
aF1.0
aF-1.0
aF-1.0
aI0
aI0
aF1.0
aF1.0
aF-1.0
aF-1.0
aF1.0
aF-1.0
aF-1.0
aF1.0
aI0
aF-1.0
aF1.0
aF-1.0
aF1.0
aF-1.0
aI0
aF1.0
aI0
aF1.0
aF-1.0
aI0
aI0
aF1.0
aF1.0
aF-1.0
aI0
aF-1.0
aF-1.0
aa(lp39
F-1.0
aF-1.0
aF1.0
aF-1.0
aI0
aF-1.0
aF-1.0
aF1.0
aF-1.0
aF1.0
aI0
aF1.0
aF-1.0
aI0
aF-1.0
aF1.0
aI0
aF1.0
aF-1.0
aI0
aI0
aI0
aF-1.0
aI0
aF-1.0
aF1.0
aF-1.0
aI0
aI0
aI0
aF-1.0
aF1.0
aF1.0
aI0
aF1.0
aI0
aI0
aF1.0
aF1.0
aI0
aF-1.0
aI0
aF1.0
aF1.0
aF-1.0
aF-1.0
aF-1.0
aF1.0
aF1.0
aF-1.0
aI0
aF1.0
aF1.0
aF1.0
aF-1.0
aF-1.0
aF-1.0
aF-1.0
aF-1.0
aF-1.0
aF-1.0
aF-1.0
aF1.0
aF-1.0
aF-1.0
aI0
aF-1.0
aF1.0
aF-1.0
aF-1.0
aI0
aI0
aF1.0
aF1.0
aF-1.0
aF-1.0
aF1.0
aF-1.0
aF-1.0
aF1.0
aI0
aF-1.0
aF1.0
aF-1.0
aF1.0
aF-1.0
aI0
aF1.0
aI0
aF1.0
aF-1.0
aI0
aI0
aF1.0
aF1.0
aF-1.0
aI0
aF-1.0
aF-1.0
aa(lp40
I0
aI0
aI0
aI0
aI0
aI0
aI0
aI0
aI0
aI0
aI0
aI0
aI0
aI0
aI0
aI0
aI0
aI0
aI0
aI0
aI0
aI0
aI0
aI0
aI0
aI0
aI0
aI0
aI0
aI0
aI0
aI0
aI0
aI0
aI0
aI0
aI0
aI0
aI0
aF1.0
aI0
aI0
aI0
aI0
aI0
aI0
aI0
aI0
aI0
aI0
aI0
aI0
aI0
aI0
aI0
aI0
aI0
aI0
aI0
aI0
aI0
aI0
aI0
aI0
aI0
aI0
aI0
aI0
aI0
aI0
aI0
aI0
aI0
aI0
aI0
aI0
aI0
aI0
aI0
aI0
aI0
aI0
aI0
aI0
aI0
aI0
aI0
aI0
aI0
aI0
aI0
aI0
aI0
aI0
aI0
aI0
aI0
aI0
aI0
aa(lp41
F1.0
aF1.0
aF-1.0
aF1.0
aI0
aF1.0
aF1.0
aF-1.0
aF1.0
aF-1.0
aI0
aF-1.0
aF1.0
aI0
aF1.0
aF-1.0
aI0
aF-1.0
aF1.0
aI0
aI0
aI0
aF1.0
aI0
aF1.0
aF-1.0
aF1.0
aI0
aI0
aI0
aF1.0
aF-1.0
aF-1.0
aI0
aF-1.0
aI0
aI0
aF-1.0
aF-1.0
aI0
aF1.0
aI0
aF-1.0
aF-1.0
aF1.0
aF1.0
aF1.0
aF-1.0
aF-1.0
aF1.0
aI0
aF-1.0
aF-1.0
aF-1.0
aF1.0
aF1.0
aF1.0
aF1.0
aF1.0
aF1.0
aF1.0
aF1.0
aF-1.0
aF1.0
aF1.0
aI0
aF1.0
aF-1.0
aF1.0
aF1.0
aI0
aI0
aF-1.0
aF-1.0
aF1.0
aF1.0
aF-1.0
aF1.0
aF1.0
aF-1.0
aI0
aF1.0
aF-1.0
aF1.0
aF-1.0
aF1.0
aI0
aF-1.0
aI0
aF-1.0
aF1.0
aI0
aI0
aF-1.0
aF-1.0
aF1.0
aI0
aF1.0
aF1.0
aa(lp42
I0
aI0
aI0
aI0
aI0
aI0
aI0
aI0
aI0
aI0
aI0
aI0
aI0
aI0
aI0
aI0
aI0
aI0
aI0
aI0
aI0
aI0
aI0
aI0
aI0
aI0
aI0
aI0
aI0
aI0
aI0
aI0
aI0
aI0
aI0
aI0
aI0
aI0
aI0
aI0
aI0
aF1.0
aI0
aI0
aI0
aI0
aI0
aI0
aI0
aI0
aI0
aI0
aI0
aI0
aI0
aI0
aI0
aI0
aI0
aI0
aI0
aI0
aI0
aI0
aI0
aI0
aI0
aI0
aI0
aI0
aI0
aI0
aI0
aI0
aI0
aI0
aI0
aI0
aI0
aI0
aI0
aI0
aI0
aI0
aI0
aI0
aI0
aI0
aI0
aI0
aI0
aI0
aI0
aI0
aI0
aI0
aI0
aI0
aI0
aa(lp43
F-1.0
aF-1.0
aF1.0
aF-1.0
aI0
aF-1.0
aF-1.0
aF1.0
aF-1.0
aF1.0
aI0
aF1.0
aF-1.0
aI0
aF-1.0
aF1.0
aI0
aF1.0
aF-1.0
aI0
aI0
aI0
aF-1.0
aI0
aF-1.0
aF1.0
aF-1.0
aI0
aI0
aI0
aF-1.0
aF1.0
aF1.0
aI0
aF1.0
aI0
aI0
aF1.0
aF1.0
aI0
aF-1.0
aI0
aF1.0
aF1.0
aF-1.0
aF-1.0
aF-1.0
aF1.0
aF1.0
aF-1.0
aI0
aF1.0
aF1.0
aF1.0
aF-1.0
aF-1.0
aF-1.0
aF-1.0
aF-1.0
aF-1.0
aF-1.0
aF-1.0
aF1.0
aF-1.0
aF-1.0
aI0
aF-1.0
aF1.0
aF-1.0
aF-1.0
aI0
aI0
aF1.0
aF1.0
aF-1.0
aF-1.0
aF1.0
aF-1.0
aF-1.0
aF1.0
aI0
aF-1.0
aF1.0
aF-1.0
aF1.0
aF-1.0
aI0
aF1.0
aI0
aF1.0
aF-1.0
aI0
aI0
aF1.0
aF1.0
aF-1.0
aI0
aF-1.0
aF-1.0
aa(lp44
F-1.0
aF-1.0
aF1.0
aF-1.0
aI0
aF-1.0
aF-1.0
aF1.0
aF-1.0
aF1.0
aI0
aF1.0
aF-1.0
aI0
aF-1.0
aF1.0
aI0
aF1.0
aF-1.0
aI0
aI0
aI0
aF-1.0
aI0
aF-1.0
aF1.0
aF-1.0
aI0
aI0
aI0
aF-1.0
aF1.0
aF1.0
aI0
aF1.0
aI0
aI0
aF1.0
aF1.0
aI0
aF-1.0
aI0
aF1.0
aF1.0
aF-1.0
aF-1.0
aF-1.0
aF1.0
aF1.0
aF-1.0
aI0
aF1.0
aF1.0
aF1.0
aF-1.0
aF-1.0
aF-1.0
aF-1.0
aF-1.0
aF-1.0
aF-1.0
aF-1.0
aF1.0
aF-1.0
aF-1.0
aI0
aF-1.0
aF1.0
aF-1.0
aF-1.0
aI0
aI0
aF1.0
aF1.0
aF-1.0
aF-1.0
aF1.0
aF-1.0
aF-1.0
aF1.0
aI0
aF-1.0
aF1.0
aF-1.0
aF1.0
aF-1.0
aI0
aF1.0
aI0
aF1.0
aF-1.0
aI0
aI0
aF1.0
aF1.0
aF-1.0
aI0
aF-1.0
aF-1.0
aa(lp45
F1.0
aF1.0
aF-1.0
aF1.0
aI0
aF1.0
aF1.0
aF-1.0
aF1.0
aF-1.0
aI0
aF-1.0
aF1.0
aI0
aF1.0
aF-1.0
aI0
aF-1.0
aF1.0
aI0
aI0
aI0
aF1.0
aI0
aF1.0
aF-1.0
aF1.0
aI0
aI0
aI0
aF1.0
aF-1.0
aF-1.0
aI0
aF-1.0
aI0
aI0
aF-1.0
aF-1.0
aI0
aF1.0
aI0
aF-1.0
aF-1.0
aF1.0
aF1.0
aF1.0
aF-1.0
aF-1.0
aF1.0
aI0
aF-1.0
aF-1.0
aF-1.0
aF1.0
aF1.0
aF1.0
aF1.0
aF1.0
aF1.0
aF1.0
aF1.0
aF-1.0
aF1.0
aF1.0
aI0
aF1.0
aF-1.0
aF1.0
aF1.0
aI0
aI0
aF-1.0
aF-1.0
aF1.0
aF1.0
aF-1.0
aF1.0
aF1.0
aF-1.0
aI0
aF1.0
aF-1.0
aF1.0
aF-1.0
aF1.0
aI0
aF-1.0
aI0
aF-1.0
aF1.0
aI0
aI0
aF-1.0
aF-1.0
aF1.0
aI0
aF1.0
aF1.0
aa(lp46
F1.0
aF1.0
aF-1.0
aF1.0
aI0
aF1.0
aF1.0
aF-1.0
aF1.0
aF-1.0
aI0
aF-1.0
aF1.0
aI0
aF1.0
aF-1.0
aI0
aF-1.0
aF1.0
aI0
aI0
aI0
aF1.0
aI0
aF1.0
aF-1.0
aF1.0
aI0
aI0
aI0
aF1.0
aF-1.0
aF-1.0
aI0
aF-1.0
aI0
aI0
aF-1.0
aF-1.0
aI0
aF1.0
aI0
aF-1.0
aF-1.0
aF1.0
aF1.0
aF1.0
aF-1.0
aF-1.0
aF1.0
aI0
aF-1.0
aF-1.0
aF-1.0
aF1.0
aF1.0
aF1.0
aF1.0
aF1.0
aF1.0
aF1.0
aF1.0
aF-1.0
aF1.0
aF1.0
aI0
aF1.0
aF-1.0
aF1.0
aF1.0
aI0
aI0
aF-1.0
aF-1.0
aF1.0
aF1.0
aF-1.0
aF1.0
aF1.0
aF-1.0
aI0
aF1.0
aF-1.0
aF1.0
aF-1.0
aF1.0
aI0
aF-1.0
aI0
aF-1.0
aF1.0
aI0
aI0
aF-1.0
aF-1.0
aF1.0
aI0
aF1.0
aF1.0
aa(lp47
F1.0
aF1.0
aF-1.0
aF1.0
aI0
aF1.0
aF1.0
aF-1.0
aF1.0
aF-1.0
aI0
aF-1.0
aF1.0
aI0
aF1.0
aF-1.0
aI0
aF-1.0
aF1.0
aI0
aI0
aI0
aF1.0
aI0
aF1.0
aF-1.0
aF1.0
aI0
aI0
aI0
aF1.0
aF-1.0
aF-1.0
aI0
aF-1.0
aI0
aI0
aF-1.0
aF-1.0
aI0
aF1.0
aI0
aF-1.0
aF-1.0
aF1.0
aF1.0
aF1.0
aF-1.0
aF-1.0
aF1.0
aI0
aF-1.0
aF-1.0
aF-1.0
aF1.0
aF1.0
aF1.0
aF1.0
aF1.0
aF1.0
aF1.0
aF1.0
aF-1.0
aF1.0
aF1.0
aI0
aF1.0
aF-1.0
aF1.0
aF1.0
aI0
aI0
aF-1.0
aF-1.0
aF1.0
aF1.0
aF-1.0
aF1.0
aF1.0
aF-1.0
aI0
aF1.0
aF-1.0
aF1.0
aF-1.0
aF1.0
aI0
aF-1.0
aI0
aF-1.0
aF1.0
aI0
aI0
aF-1.0
aF-1.0
aF1.0
aI0
aF1.0
aF1.0
aa(lp48
F-1.0
aF-1.0
aF1.0
aF-1.0
aI0
aF-1.0
aF-1.0
aF1.0
aF-1.0
aF1.0
aI0
aF1.0
aF-1.0
aI0
aF-1.0
aF1.0
aI0
aF1.0
aF-1.0
aI0
aI0
aI0
aF-1.0
aI0
aF-1.0
aF1.0
aF-1.0
aI0
aI0
aI0
aF-1.0
aF1.0
aF1.0
aI0
aF1.0
aI0
aI0
aF1.0
aF1.0
aI0
aF-1.0
aI0
aF1.0
aF1.0
aF-1.0
aF-1.0
aF-1.0
aF1.0
aF1.0
aF-1.0
aI0
aF1.0
aF1.0
aF1.0
aF-1.0
aF-1.0
aF-1.0
aF-1.0
aF-1.0
aF-1.0
aF-1.0
aF-1.0
aF1.0
aF-1.0
aF-1.0
aI0
aF-1.0
aF1.0
aF-1.0
aF-1.0
aI0
aI0
aF1.0
aF1.0
aF-1.0
aF-1.0
aF1.0
aF-1.0
aF-1.0
aF1.0
aI0
aF-1.0
aF1.0
aF-1.0
aF1.0
aF-1.0
aI0
aF1.0
aI0
aF1.0
aF-1.0
aI0
aI0
aF1.0
aF1.0
aF-1.0
aI0
aF-1.0
aF-1.0
aa(lp49
F-1.0
aF-1.0
aF1.0
aF-1.0
aI0
aF-1.0
aF-1.0
aF1.0
aF-1.0
aF1.0
aI0
aF1.0
aF-1.0
aI0
aF-1.0
aF1.0
aI0
aF1.0
aF-1.0
aI0
aI0
aI0
aF-1.0
aI0
aF-1.0
aF1.0
aF-1.0
aI0
aI0
aI0
aF-1.0
aF1.0
aF1.0
aI0
aF1.0
aI0
aI0
aF1.0
aF1.0
aI0
aF-1.0
aI0
aF1.0
aF1.0
aF-1.0
aF-1.0
aF-1.0
aF1.0
aF1.0
aF-1.0
aI0
aF1.0
aF1.0
aF1.0
aF-1.0
aF-1.0
aF-1.0
aF-1.0
aF-1.0
aF-1.0
aF-1.0
aF-1.0
aF1.0
aF-1.0
aF-1.0
aI0
aF-1.0
aF1.0
aF-1.0
aF-1.0
aI0
aI0
aF1.0
aF1.0
aF-1.0
aF-1.0
aF1.0
aF-1.0
aF-1.0
aF1.0
aI0
aF-1.0
aF1.0
aF-1.0
aF1.0
aF-1.0
aI0
aF1.0
aI0
aF1.0
aF-1.0
aI0
aI0
aF1.0
aF1.0
aF-1.0
aI0
aF-1.0
aF-1.0
aa(lp50
F1.0
aF1.0
aF-1.0
aF1.0
aI0
aF1.0
aF1.0
aF-1.0
aF1.0
aF-1.0
aI0
aF-1.0
aF1.0
aI0
aF1.0
aF-1.0
aI0
aF-1.0
aF1.0
aI0
aI0
aI0
aF1.0
aI0
aF1.0
aF-1.0
aF1.0
aI0
aI0
aI0
aF1.0
aF-1.0
aF-1.0
aI0
aF-1.0
aI0
aI0
aF-1.0
aF-1.0
aI0
aF1.0
aI0
aF-1.0
aF-1.0
aF1.0
aF1.0
aF1.0
aF-1.0
aF-1.0
aF1.0
aI0
aF-1.0
aF-1.0
aF-1.0
aF1.0
aF1.0
aF1.0
aF1.0
aF1.0
aF1.0
aF1.0
aF1.0
aF-1.0
aF1.0
aF1.0
aI0
aF1.0
aF-1.0
aF1.0
aF1.0
aI0
aI0
aF-1.0
aF-1.0
aF1.0
aF1.0
aF-1.0
aF1.0
aF1.0
aF-1.0
aI0
aF1.0
aF-1.0
aF1.0
aF-1.0
aF1.0
aI0
aF-1.0
aI0
aF-1.0
aF1.0
aI0
aI0
aF-1.0
aF-1.0
aF1.0
aI0
aF1.0
aF1.0
aa(lp51
I0
aI0
aI0
aI0
aI0
aI0
aI0
aI0
aI0
aI0
aI0
aI0
aI0
aI0
aI0
aI0
aI0
aI0
aI0
aI0
aI0
aI0
aI0
aI0
aI0
aI0
aI0
aI0
aI0
aI0
aI0
aI0
aI0
aI0
aI0
aI0
aI0
aI0
aI0
aI0
aI0
aI0
aI0
aI0
aI0
aI0
aI0
aI0
aI0
aI0
aF1.0
aI0
aI0
aI0
aI0
aI0
aI0
aI0
aI0
aI0
aI0
aI0
aI0
aI0
aI0
aI0
aI0
aI0
aI0
aI0
aI0
aI0
aI0
aI0
aI0
aI0
aI0
aI0
aI0
aI0
aI0
aI0
aI0
aI0
aI0
aI0
aI0
aI0
aI0
aI0
aI0
aI0
aI0
aI0
aI0
aI0
aI0
aI0
aI0
aa(lp52
F-1.0
aF-1.0
aF1.0
aF-1.0
aI0
aF-1.0
aF-1.0
aF1.0
aF-1.0
aF1.0
aI0
aF1.0
aF-1.0
aI0
aF-1.0
aF1.0
aI0
aF1.0
aF-1.0
aI0
aI0
aI0
aF-1.0
aI0
aF-1.0
aF1.0
aF-1.0
aI0
aI0
aI0
aF-1.0
aF1.0
aF1.0
aI0
aF1.0
aI0
aI0
aF1.0
aF1.0
aI0
aF-1.0
aI0
aF1.0
aF1.0
aF-1.0
aF-1.0
aF-1.0
aF1.0
aF1.0
aF-1.0
aI0
aF1.0
aF1.0
aF1.0
aF-1.0
aF-1.0
aF-1.0
aF-1.0
aF-1.0
aF-1.0
aF-1.0
aF-1.0
aF1.0
aF-1.0
aF-1.0
aI0
aF-1.0
aF1.0
aF-1.0
aF-1.0
aI0
aI0
aF1.0
aF1.0
aF-1.0
aF-1.0
aF1.0
aF-1.0
aF-1.0
aF1.0
aI0
aF-1.0
aF1.0
aF-1.0
aF1.0
aF-1.0
aI0
aF1.0
aI0
aF1.0
aF-1.0
aI0
aI0
aF1.0
aF1.0
aF-1.0
aI0
aF-1.0
aF-1.0
aa(lp53
F-1.0
aF-1.0
aF1.0
aF-1.0
aI0
aF-1.0
aF-1.0
aF1.0
aF-1.0
aF1.0
aI0
aF1.0
aF-1.0
aI0
aF-1.0
aF1.0
aI0
aF1.0
aF-1.0
aI0
aI0
aI0
aF-1.0
aI0
aF-1.0
aF1.0
aF-1.0
aI0
aI0
aI0
aF-1.0
aF1.0
aF1.0
aI0
aF1.0
aI0
aI0
aF1.0
aF1.0
aI0
aF-1.0
aI0
aF1.0
aF1.0
aF-1.0
aF-1.0
aF-1.0
aF1.0
aF1.0
aF-1.0
aI0
aF1.0
aF1.0
aF1.0
aF-1.0
aF-1.0
aF-1.0
aF-1.0
aF-1.0
aF-1.0
aF-1.0
aF-1.0
aF1.0
aF-1.0
aF-1.0
aI0
aF-1.0
aF1.0
aF-1.0
aF-1.0
aI0
aI0
aF1.0
aF1.0
aF-1.0
aF-1.0
aF1.0
aF-1.0
aF-1.0
aF1.0
aI0
aF-1.0
aF1.0
aF-1.0
aF1.0
aF-1.0
aI0
aF1.0
aI0
aF1.0
aF-1.0
aI0
aI0
aF1.0
aF1.0
aF-1.0
aI0
aF-1.0
aF-1.0
aa(lp54
F-1.0
aF-1.0
aF1.0
aF-1.0
aI0
aF-1.0
aF-1.0
aF1.0
aF-1.0
aF1.0
aI0
aF1.0
aF-1.0
aI0
aF-1.0
aF1.0
aI0
aF1.0
aF-1.0
aI0
aI0
aI0
aF-1.0
aI0
aF-1.0
aF1.0
aF-1.0
aI0
aI0
aI0
aF-1.0
aF1.0
aF1.0
aI0
aF1.0
aI0
aI0
aF1.0
aF1.0
aI0
aF-1.0
aI0
aF1.0
aF1.0
aF-1.0
aF-1.0
aF-1.0
aF1.0
aF1.0
aF-1.0
aI0
aF1.0
aF1.0
aF1.0
aF-1.0
aF-1.0
aF-1.0
aF-1.0
aF-1.0
aF-1.0
aF-1.0
aF-1.0
aF1.0
aF-1.0
aF-1.0
aI0
aF-1.0
aF1.0
aF-1.0
aF-1.0
aI0
aI0
aF1.0
aF1.0
aF-1.0
aF-1.0
aF1.0
aF-1.0
aF-1.0
aF1.0
aI0
aF-1.0
aF1.0
aF-1.0
aF1.0
aF-1.0
aI0
aF1.0
aI0
aF1.0
aF-1.0
aI0
aI0
aF1.0
aF1.0
aF-1.0
aI0
aF-1.0
aF-1.0
aa(lp55
F1.0
aF1.0
aF-1.0
aF1.0
aI0
aF1.0
aF1.0
aF-1.0
aF1.0
aF-1.0
aI0
aF-1.0
aF1.0
aI0
aF1.0
aF-1.0
aI0
aF-1.0
aF1.0
aI0
aI0
aI0
aF1.0
aI0
aF1.0
aF-1.0
aF1.0
aI0
aI0
aI0
aF1.0
aF-1.0
aF-1.0
aI0
aF-1.0
aI0
aI0
aF-1.0
aF-1.0
aI0
aF1.0
aI0
aF-1.0
aF-1.0
aF1.0
aF1.0
aF1.0
aF-1.0
aF-1.0
aF1.0
aI0
aF-1.0
aF-1.0
aF-1.0
aF1.0
aF1.0
aF1.0
aF1.0
aF1.0
aF1.0
aF1.0
aF1.0
aF-1.0
aF1.0
aF1.0
aI0
aF1.0
aF-1.0
aF1.0
aF1.0
aI0
aI0
aF-1.0
aF-1.0
aF1.0
aF1.0
aF-1.0
aF1.0
aF1.0
aF-1.0
aI0
aF1.0
aF-1.0
aF1.0
aF-1.0
aF1.0
aI0
aF-1.0
aI0
aF-1.0
aF1.0
aI0
aI0
aF-1.0
aF-1.0
aF1.0
aI0
aF1.0
aF1.0
aa(lp56
F1.0
aF1.0
aF-1.0
aF1.0
aI0
aF1.0
aF1.0
aF-1.0
aF1.0
aF-1.0
aI0
aF-1.0
aF1.0
aI0
aF1.0
aF-1.0
aI0
aF-1.0
aF1.0
aI0
aI0
aI0
aF1.0
aI0
aF1.0
aF-1.0
aF1.0
aI0
aI0
aI0
aF1.0
aF-1.0
aF-1.0
aI0
aF-1.0
aI0
aI0
aF-1.0
aF-1.0
aI0
aF1.0
aI0
aF-1.0
aF-1.0
aF1.0
aF1.0
aF1.0
aF-1.0
aF-1.0
aF1.0
aI0
aF-1.0
aF-1.0
aF-1.0
aF1.0
aF1.0
aF1.0
aF1.0
aF1.0
aF1.0
aF1.0
aF1.0
aF-1.0
aF1.0
aF1.0
aI0
aF1.0
aF-1.0
aF1.0
aF1.0
aI0
aI0
aF-1.0
aF-1.0
aF1.0
aF1.0
aF-1.0
aF1.0
aF1.0
aF-1.0
aI0
aF1.0
aF-1.0
aF1.0
aF-1.0
aF1.0
aI0
aF-1.0
aI0
aF-1.0
aF1.0
aI0
aI0
aF-1.0
aF-1.0
aF1.0
aI0
aF1.0
aF1.0
aa(lp57
F1.0
aF1.0
aF-1.0
aF1.0
aI0
aF1.0
aF1.0
aF-1.0
aF1.0
aF-1.0
aI0
aF-1.0
aF1.0
aI0
aF1.0
aF-1.0
aI0
aF-1.0
aF1.0
aI0
aI0
aI0
aF1.0
aI0
aF1.0
aF-1.0
aF1.0
aI0
aI0
aI0
aF1.0
aF-1.0
aF-1.0
aI0
aF-1.0
aI0
aI0
aF-1.0
aF-1.0
aI0
aF1.0
aI0
aF-1.0
aF-1.0
aF1.0
aF1.0
aF1.0
aF-1.0
aF-1.0
aF1.0
aI0
aF-1.0
aF-1.0
aF-1.0
aF1.0
aF1.0
aF1.0
aF1.0
aF1.0
aF1.0
aF1.0
aF1.0
aF-1.0
aF1.0
aF1.0
aI0
aF1.0
aF-1.0
aF1.0
aF1.0
aI0
aI0
aF-1.0
aF-1.0
aF1.0
aF1.0
aF-1.0
aF1.0
aF1.0
aF-1.0
aI0
aF1.0
aF-1.0
aF1.0
aF-1.0
aF1.0
aI0
aF-1.0
aI0
aF-1.0
aF1.0
aI0
aI0
aF-1.0
aF-1.0
aF1.0
aI0
aF1.0
aF1.0
aa(lp58
F1.0
aF1.0
aF-1.0
aF1.0
aI0
aF1.0
aF1.0
aF-1.0
aF1.0
aF-1.0
aI0
aF-1.0
aF1.0
aI0
aF1.0
aF-1.0
aI0
aF-1.0
aF1.0
aI0
aI0
aI0
aF1.0
aI0
aF1.0
aF-1.0
aF1.0
aI0
aI0
aI0
aF1.0
aF-1.0
aF-1.0
aI0
aF-1.0
aI0
aI0
aF-1.0
aF-1.0
aI0
aF1.0
aI0
aF-1.0
aF-1.0
aF1.0
aF1.0
aF1.0
aF-1.0
aF-1.0
aF1.0
aI0
aF-1.0
aF-1.0
aF-1.0
aF1.0
aF1.0
aF1.0
aF1.0
aF1.0
aF1.0
aF1.0
aF1.0
aF-1.0
aF1.0
aF1.0
aI0
aF1.0
aF-1.0
aF1.0
aF1.0
aI0
aI0
aF-1.0
aF-1.0
aF1.0
aF1.0
aF-1.0
aF1.0
aF1.0
aF-1.0
aI0
aF1.0
aF-1.0
aF1.0
aF-1.0
aF1.0
aI0
aF-1.0
aI0
aF-1.0
aF1.0
aI0
aI0
aF-1.0
aF-1.0
aF1.0
aI0
aF1.0
aF1.0
aa(lp59
F1.0
aF1.0
aF-1.0
aF1.0
aI0
aF1.0
aF1.0
aF-1.0
aF1.0
aF-1.0
aI0
aF-1.0
aF1.0
aI0
aF1.0
aF-1.0
aI0
aF-1.0
aF1.0
aI0
aI0
aI0
aF1.0
aI0
aF1.0
aF-1.0
aF1.0
aI0
aI0
aI0
aF1.0
aF-1.0
aF-1.0
aI0
aF-1.0
aI0
aI0
aF-1.0
aF-1.0
aI0
aF1.0
aI0
aF-1.0
aF-1.0
aF1.0
aF1.0
aF1.0
aF-1.0
aF-1.0
aF1.0
aI0
aF-1.0
aF-1.0
aF-1.0
aF1.0
aF1.0
aF1.0
aF1.0
aF1.0
aF1.0
aF1.0
aF1.0
aF-1.0
aF1.0
aF1.0
aI0
aF1.0
aF-1.0
aF1.0
aF1.0
aI0
aI0
aF-1.0
aF-1.0
aF1.0
aF1.0
aF-1.0
aF1.0
aF1.0
aF-1.0
aI0
aF1.0
aF-1.0
aF1.0
aF-1.0
aF1.0
aI0
aF-1.0
aI0
aF-1.0
aF1.0
aI0
aI0
aF-1.0
aF-1.0
aF1.0
aI0
aF1.0
aF1.0
aa(lp60
F1.0
aF1.0
aF-1.0
aF1.0
aI0
aF1.0
aF1.0
aF-1.0
aF1.0
aF-1.0
aI0
aF-1.0
aF1.0
aI0
aF1.0
aF-1.0
aI0
aF-1.0
aF1.0
aI0
aI0
aI0
aF1.0
aI0
aF1.0
aF-1.0
aF1.0
aI0
aI0
aI0
aF1.0
aF-1.0
aF-1.0
aI0
aF-1.0
aI0
aI0
aF-1.0
aF-1.0
aI0
aF1.0
aI0
aF-1.0
aF-1.0
aF1.0
aF1.0
aF1.0
aF-1.0
aF-1.0
aF1.0
aI0
aF-1.0
aF-1.0
aF-1.0
aF1.0
aF1.0
aF1.0
aF1.0
aF1.0
aF1.0
aF1.0
aF1.0
aF-1.0
aF1.0
aF1.0
aI0
aF1.0
aF-1.0
aF1.0
aF1.0
aI0
aI0
aF-1.0
aF-1.0
aF1.0
aF1.0
aF-1.0
aF1.0
aF1.0
aF-1.0
aI0
aF1.0
aF-1.0
aF1.0
aF-1.0
aF1.0
aI0
aF-1.0
aI0
aF-1.0
aF1.0
aI0
aI0
aF-1.0
aF-1.0
aF1.0
aI0
aF1.0
aF1.0
aa(lp61
F1.0
aF1.0
aF-1.0
aF1.0
aI0
aF1.0
aF1.0
aF-1.0
aF1.0
aF-1.0
aI0
aF-1.0
aF1.0
aI0
aF1.0
aF-1.0
aI0
aF-1.0
aF1.0
aI0
aI0
aI0
aF1.0
aI0
aF1.0
aF-1.0
aF1.0
aI0
aI0
aI0
aF1.0
aF-1.0
aF-1.0
aI0
aF-1.0
aI0
aI0
aF-1.0
aF-1.0
aI0
aF1.0
aI0
aF-1.0
aF-1.0
aF1.0
aF1.0
aF1.0
aF-1.0
aF-1.0
aF1.0
aI0
aF-1.0
aF-1.0
aF-1.0
aF1.0
aF1.0
aF1.0
aF1.0
aF1.0
aF1.0
aF1.0
aF1.0
aF-1.0
aF1.0
aF1.0
aI0
aF1.0
aF-1.0
aF1.0
aF1.0
aI0
aI0
aF-1.0
aF-1.0
aF1.0
aF1.0
aF-1.0
aF1.0
aF1.0
aF-1.0
aI0
aF1.0
aF-1.0
aF1.0
aF-1.0
aF1.0
aI0
aF-1.0
aI0
aF-1.0
aF1.0
aI0
aI0
aF-1.0
aF-1.0
aF1.0
aI0
aF1.0
aF1.0
aa(lp62
F1.0
aF1.0
aF-1.0
aF1.0
aI0
aF1.0
aF1.0
aF-1.0
aF1.0
aF-1.0
aI0
aF-1.0
aF1.0
aI0
aF1.0
aF-1.0
aI0
aF-1.0
aF1.0
aI0
aI0
aI0
aF1.0
aI0
aF1.0
aF-1.0
aF1.0
aI0
aI0
aI0
aF1.0
aF-1.0
aF-1.0
aI0
aF-1.0
aI0
aI0
aF-1.0
aF-1.0
aI0
aF1.0
aI0
aF-1.0
aF-1.0
aF1.0
aF1.0
aF1.0
aF-1.0
aF-1.0
aF1.0
aI0
aF-1.0
aF-1.0
aF-1.0
aF1.0
aF1.0
aF1.0
aF1.0
aF1.0
aF1.0
aF1.0
aF1.0
aF-1.0
aF1.0
aF1.0
aI0
aF1.0
aF-1.0
aF1.0
aF1.0
aI0
aI0
aF-1.0
aF-1.0
aF1.0
aF1.0
aF-1.0
aF1.0
aF1.0
aF-1.0
aI0
aF1.0
aF-1.0
aF1.0
aF-1.0
aF1.0
aI0
aF-1.0
aI0
aF-1.0
aF1.0
aI0
aI0
aF-1.0
aF-1.0
aF1.0
aI0
aF1.0
aF1.0
aa(lp63
F-1.0
aF-1.0
aF1.0
aF-1.0
aI0
aF-1.0
aF-1.0
aF1.0
aF-1.0
aF1.0
aI0
aF1.0
aF-1.0
aI0
aF-1.0
aF1.0
aI0
aF1.0
aF-1.0
aI0
aI0
aI0
aF-1.0
aI0
aF-1.0
aF1.0
aF-1.0
aI0
aI0
aI0
aF-1.0
aF1.0
aF1.0
aI0
aF1.0
aI0
aI0
aF1.0
aF1.0
aI0
aF-1.0
aI0
aF1.0
aF1.0
aF-1.0
aF-1.0
aF-1.0
aF1.0
aF1.0
aF-1.0
aI0
aF1.0
aF1.0
aF1.0
aF-1.0
aF-1.0
aF-1.0
aF-1.0
aF-1.0
aF-1.0
aF-1.0
aF-1.0
aF1.0
aF-1.0
aF-1.0
aI0
aF-1.0
aF1.0
aF-1.0
aF-1.0
aI0
aI0
aF1.0
aF1.0
aF-1.0
aF-1.0
aF1.0
aF-1.0
aF-1.0
aF1.0
aI0
aF-1.0
aF1.0
aF-1.0
aF1.0
aF-1.0
aI0
aF1.0
aI0
aF1.0
aF-1.0
aI0
aI0
aF1.0
aF1.0
aF-1.0
aI0
aF-1.0
aF-1.0
aa(lp64
F1.0
aF1.0
aF-1.0
aF1.0
aI0
aF1.0
aF1.0
aF-1.0
aF1.0
aF-1.0
aI0
aF-1.0
aF1.0
aI0
aF1.0
aF-1.0
aI0
aF-1.0
aF1.0
aI0
aI0
aI0
aF1.0
aI0
aF1.0
aF-1.0
aF1.0
aI0
aI0
aI0
aF1.0
aF-1.0
aF-1.0
aI0
aF-1.0
aI0
aI0
aF-1.0
aF-1.0
aI0
aF1.0
aI0
aF-1.0
aF-1.0
aF1.0
aF1.0
aF1.0
aF-1.0
aF-1.0
aF1.0
aI0
aF-1.0
aF-1.0
aF-1.0
aF1.0
aF1.0
aF1.0
aF1.0
aF1.0
aF1.0
aF1.0
aF1.0
aF-1.0
aF1.0
aF1.0
aI0
aF1.0
aF-1.0
aF1.0
aF1.0
aI0
aI0
aF-1.0
aF-1.0
aF1.0
aF1.0
aF-1.0
aF1.0
aF1.0
aF-1.0
aI0
aF1.0
aF-1.0
aF1.0
aF-1.0
aF1.0
aI0
aF-1.0
aI0
aF-1.0
aF1.0
aI0
aI0
aF-1.0
aF-1.0
aF1.0
aI0
aF1.0
aF1.0
aa(lp65
F1.0
aF1.0
aF-1.0
aF1.0
aI0
aF1.0
aF1.0
aF-1.0
aF1.0
aF-1.0
aI0
aF-1.0
aF1.0
aI0
aF1.0
aF-1.0
aI0
aF-1.0
aF1.0
aI0
aI0
aI0
aF1.0
aI0
aF1.0
aF-1.0
aF1.0
aI0
aI0
aI0
aF1.0
aF-1.0
aF-1.0
aI0
aF-1.0
aI0
aI0
aF-1.0
aF-1.0
aI0
aF1.0
aI0
aF-1.0
aF-1.0
aF1.0
aF1.0
aF1.0
aF-1.0
aF-1.0
aF1.0
aI0
aF-1.0
aF-1.0
aF-1.0
aF1.0
aF1.0
aF1.0
aF1.0
aF1.0
aF1.0
aF1.0
aF1.0
aF-1.0
aF1.0
aF1.0
aI0
aF1.0
aF-1.0
aF1.0
aF1.0
aI0
aI0
aF-1.0
aF-1.0
aF1.0
aF1.0
aF-1.0
aF1.0
aF1.0
aF-1.0
aI0
aF1.0
aF-1.0
aF1.0
aF-1.0
aF1.0
aI0
aF-1.0
aI0
aF-1.0
aF1.0
aI0
aI0
aF-1.0
aF-1.0
aF1.0
aI0
aF1.0
aF1.0
aa(lp66
I0
aI0
aI0
aI0
aI0
aI0
aI0
aI0
aI0
aI0
aI0
aI0
aI0
aI0
aI0
aI0
aI0
aI0
aI0
aI0
aI0
aI0
aI0
aI0
aI0
aI0
aI0
aI0
aI0
aI0
aI0
aI0
aI0
aI0
aI0
aI0
aI0
aI0
aI0
aI0
aI0
aI0
aI0
aI0
aI0
aI0
aI0
aI0
aI0
aI0
aI0
aI0
aI0
aI0
aI0
aI0
aI0
aI0
aI0
aI0
aI0
aI0
aI0
aI0
aI0
aF1.0
aI0
aI0
aI0
aI0
aI0
aI0
aI0
aI0
aI0
aI0
aI0
aI0
aI0
aI0
aI0
aI0
aI0
aI0
aI0
aI0
aI0
aI0
aI0
aI0
aI0
aI0
aI0
aI0
aI0
aI0
aI0
aI0
aI0
aa(lp67
F1.0
aF1.0
aF-1.0
aF1.0
aI0
aF1.0
aF1.0
aF-1.0
aF1.0
aF-1.0
aI0
aF-1.0
aF1.0
aI0
aF1.0
aF-1.0
aI0
aF-1.0
aF1.0
aI0
aI0
aI0
aF1.0
aI0
aF1.0
aF-1.0
aF1.0
aI0
aI0
aI0
aF1.0
aF-1.0
aF-1.0
aI0
aF-1.0
aI0
aI0
aF-1.0
aF-1.0
aI0
aF1.0
aI0
aF-1.0
aF-1.0
aF1.0
aF1.0
aF1.0
aF-1.0
aF-1.0
aF1.0
aI0
aF-1.0
aF-1.0
aF-1.0
aF1.0
aF1.0
aF1.0
aF1.0
aF1.0
aF1.0
aF1.0
aF1.0
aF-1.0
aF1.0
aF1.0
aI0
aF1.0
aF-1.0
aF1.0
aF1.0
aI0
aI0
aF-1.0
aF-1.0
aF1.0
aF1.0
aF-1.0
aF1.0
aF1.0
aF-1.0
aI0
aF1.0
aF-1.0
aF1.0
aF-1.0
aF1.0
aI0
aF-1.0
aI0
aF-1.0
aF1.0
aI0
aI0
aF-1.0
aF-1.0
aF1.0
aI0
aF1.0
aF1.0
aa(lp68
F-1.0
aF-1.0
aF1.0
aF-1.0
aI0
aF-1.0
aF-1.0
aF1.0
aF-1.0
aF1.0
aI0
aF1.0
aF-1.0
aI0
aF-1.0
aF1.0
aI0
aF1.0
aF-1.0
aI0
aI0
aI0
aF-1.0
aI0
aF-1.0
aF1.0
aF-1.0
aI0
aI0
aI0
aF-1.0
aF1.0
aF1.0
aI0
aF1.0
aI0
aI0
aF1.0
aF1.0
aI0
aF-1.0
aI0
aF1.0
aF1.0
aF-1.0
aF-1.0
aF-1.0
aF1.0
aF1.0
aF-1.0
aI0
aF1.0
aF1.0
aF1.0
aF-1.0
aF-1.0
aF-1.0
aF-1.0
aF-1.0
aF-1.0
aF-1.0
aF-1.0
aF1.0
aF-1.0
aF-1.0
aI0
aF-1.0
aF1.0
aF-1.0
aF-1.0
aI0
aI0
aF1.0
aF1.0
aF-1.0
aF-1.0
aF1.0
aF-1.0
aF-1.0
aF1.0
aI0
aF-1.0
aF1.0
aF-1.0
aF1.0
aF-1.0
aI0
aF1.0
aI0
aF1.0
aF-1.0
aI0
aI0
aF1.0
aF1.0
aF-1.0
aI0
aF-1.0
aF-1.0
aa(lp69
F1.0
aF1.0
aF-1.0
aF1.0
aI0
aF1.0
aF1.0
aF-1.0
aF1.0
aF-1.0
aI0
aF-1.0
aF1.0
aI0
aF1.0
aF-1.0
aI0
aF-1.0
aF1.0
aI0
aI0
aI0
aF1.0
aI0
aF1.0
aF-1.0
aF1.0
aI0
aI0
aI0
aF1.0
aF-1.0
aF-1.0
aI0
aF-1.0
aI0
aI0
aF-1.0
aF-1.0
aI0
aF1.0
aI0
aF-1.0
aF-1.0
aF1.0
aF1.0
aF1.0
aF-1.0
aF-1.0
aF1.0
aI0
aF-1.0
aF-1.0
aF-1.0
aF1.0
aF1.0
aF1.0
aF1.0
aF1.0
aF1.0
aF1.0
aF1.0
aF-1.0
aF1.0
aF1.0
aI0
aF1.0
aF-1.0
aF1.0
aF1.0
aI0
aI0
aF-1.0
aF-1.0
aF1.0
aF1.0
aF-1.0
aF1.0
aF1.0
aF-1.0
aI0
aF1.0
aF-1.0
aF1.0
aF-1.0
aF1.0
aI0
aF-1.0
aI0
aF-1.0
aF1.0
aI0
aI0
aF-1.0
aF-1.0
aF1.0
aI0
aF1.0
aF1.0
aa(lp70
F1.0
aF1.0
aF-1.0
aF1.0
aI0
aF1.0
aF1.0
aF-1.0
aF1.0
aF-1.0
aI0
aF-1.0
aF1.0
aI0
aF1.0
aF-1.0
aI0
aF-1.0
aF1.0
aI0
aI0
aI0
aF1.0
aI0
aF1.0
aF-1.0
aF1.0
aI0
aI0
aI0
aF1.0
aF-1.0
aF-1.0
aI0
aF-1.0
aI0
aI0
aF-1.0
aF-1.0
aI0
aF1.0
aI0
aF-1.0
aF-1.0
aF1.0
aF1.0
aF1.0
aF-1.0
aF-1.0
aF1.0
aI0
aF-1.0
aF-1.0
aF-1.0
aF1.0
aF1.0
aF1.0
aF1.0
aF1.0
aF1.0
aF1.0
aF1.0
aF-1.0
aF1.0
aF1.0
aI0
aF1.0
aF-1.0
aF1.0
aF1.0
aI0
aI0
aF-1.0
aF-1.0
aF1.0
aF1.0
aF-1.0
aF1.0
aF1.0
aF-1.0
aI0
aF1.0
aF-1.0
aF1.0
aF-1.0
aF1.0
aI0
aF-1.0
aI0
aF-1.0
aF1.0
aI0
aI0
aF-1.0
aF-1.0
aF1.0
aI0
aF1.0
aF1.0
aa(lp71
I0
aI0
aI0
aI0
aI0
aI0
aI0
aI0
aI0
aI0
aI0
aI0
aI0
aI0
aI0
aI0
aI0
aI0
aI0
aI0
aI0
aI0
aI0
aI0
aI0
aI0
aI0
aI0
aI0
aI0
aI0
aI0
aI0
aI0
aI0
aI0
aI0
aI0
aI0
aI0
aI0
aI0
aI0
aI0
aI0
aI0
aI0
aI0
aI0
aI0
aI0
aI0
aI0
aI0
aI0
aI0
aI0
aI0
aI0
aI0
aI0
aI0
aI0
aI0
aI0
aI0
aI0
aI0
aI0
aI0
aF1.0
aI0
aI0
aI0
aI0
aI0
aI0
aI0
aI0
aI0
aI0
aI0
aI0
aI0
aI0
aI0
aI0
aI0
aI0
aI0
aI0
aI0
aI0
aI0
aI0
aI0
aI0
aI0
aI0
aa(lp72
I0
aI0
aI0
aI0
aI0
aI0
aI0
aI0
aI0
aI0
aI0
aI0
aI0
aI0
aI0
aI0
aI0
aI0
aI0
aI0
aI0
aI0
aI0
aI0
aI0
aI0
aI0
aI0
aI0
aI0
aI0
aI0
aI0
aI0
aI0
aI0
aI0
aI0
aI0
aI0
aI0
aI0
aI0
aI0
aI0
aI0
aI0
aI0
aI0
aI0
aI0
aI0
aI0
aI0
aI0
aI0
aI0
aI0
aI0
aI0
aI0
aI0
aI0
aI0
aI0
aI0
aI0
aI0
aI0
aI0
aI0
aF1.0
aI0
aI0
aI0
aI0
aI0
aI0
aI0
aI0
aI0
aI0
aI0
aI0
aI0
aI0
aI0
aI0
aI0
aI0
aI0
aI0
aI0
aI0
aI0
aI0
aI0
aI0
aI0
aa(lp73
F-1.0
aF-1.0
aF1.0
aF-1.0
aI0
aF-1.0
aF-1.0
aF1.0
aF-1.0
aF1.0
aI0
aF1.0
aF-1.0
aI0
aF-1.0
aF1.0
aI0
aF1.0
aF-1.0
aI0
aI0
aI0
aF-1.0
aI0
aF-1.0
aF1.0
aF-1.0
aI0
aI0
aI0
aF-1.0
aF1.0
aF1.0
aI0
aF1.0
aI0
aI0
aF1.0
aF1.0
aI0
aF-1.0
aI0
aF1.0
aF1.0
aF-1.0
aF-1.0
aF-1.0
aF1.0
aF1.0
aF-1.0
aI0
aF1.0
aF1.0
aF1.0
aF-1.0
aF-1.0
aF-1.0
aF-1.0
aF-1.0
aF-1.0
aF-1.0
aF-1.0
aF1.0
aF-1.0
aF-1.0
aI0
aF-1.0
aF1.0
aF-1.0
aF-1.0
aI0
aI0
aF1.0
aF1.0
aF-1.0
aF-1.0
aF1.0
aF-1.0
aF-1.0
aF1.0
aI0
aF-1.0
aF1.0
aF-1.0
aF1.0
aF-1.0
aI0
aF1.0
aI0
aF1.0
aF-1.0
aI0
aI0
aF1.0
aF1.0
aF-1.0
aI0
aF-1.0
aF-1.0
aa(lp74
F-1.0
aF-1.0
aF1.0
aF-1.0
aI0
aF-1.0
aF-1.0
aF1.0
aF-1.0
aF1.0
aI0
aF1.0
aF-1.0
aI0
aF-1.0
aF1.0
aI0
aF1.0
aF-1.0
aI0
aI0
aI0
aF-1.0
aI0
aF-1.0
aF1.0
aF-1.0
aI0
aI0
aI0
aF-1.0
aF1.0
aF1.0
aI0
aF1.0
aI0
aI0
aF1.0
aF1.0
aI0
aF-1.0
aI0
aF1.0
aF1.0
aF-1.0
aF-1.0
aF-1.0
aF1.0
aF1.0
aF-1.0
aI0
aF1.0
aF1.0
aF1.0
aF-1.0
aF-1.0
aF-1.0
aF-1.0
aF-1.0
aF-1.0
aF-1.0
aF-1.0
aF1.0
aF-1.0
aF-1.0
aI0
aF-1.0
aF1.0
aF-1.0
aF-1.0
aI0
aI0
aF1.0
aF1.0
aF-1.0
aF-1.0
aF1.0
aF-1.0
aF-1.0
aF1.0
aI0
aF-1.0
aF1.0
aF-1.0
aF1.0
aF-1.0
aI0
aF1.0
aI0
aF1.0
aF-1.0
aI0
aI0
aF1.0
aF1.0
aF-1.0
aI0
aF-1.0
aF-1.0
aa(lp75
F1.0
aF1.0
aF-1.0
aF1.0
aI0
aF1.0
aF1.0
aF-1.0
aF1.0
aF-1.0
aI0
aF-1.0
aF1.0
aI0
aF1.0
aF-1.0
aI0
aF-1.0
aF1.0
aI0
aI0
aI0
aF1.0
aI0
aF1.0
aF-1.0
aF1.0
aI0
aI0
aI0
aF1.0
aF-1.0
aF-1.0
aI0
aF-1.0
aI0
aI0
aF-1.0
aF-1.0
aI0
aF1.0
aI0
aF-1.0
aF-1.0
aF1.0
aF1.0
aF1.0
aF-1.0
aF-1.0
aF1.0
aI0
aF-1.0
aF-1.0
aF-1.0
aF1.0
aF1.0
aF1.0
aF1.0
aF1.0
aF1.0
aF1.0
aF1.0
aF-1.0
aF1.0
aF1.0
aI0
aF1.0
aF-1.0
aF1.0
aF1.0
aI0
aI0
aF-1.0
aF-1.0
aF1.0
aF1.0
aF-1.0
aF1.0
aF1.0
aF-1.0
aI0
aF1.0
aF-1.0
aF1.0
aF-1.0
aF1.0
aI0
aF-1.0
aI0
aF-1.0
aF1.0
aI0
aI0
aF-1.0
aF-1.0
aF1.0
aI0
aF1.0
aF1.0
aa(lp76
F1.0
aF1.0
aF-1.0
aF1.0
aI0
aF1.0
aF1.0
aF-1.0
aF1.0
aF-1.0
aI0
aF-1.0
aF1.0
aI0
aF1.0
aF-1.0
aI0
aF-1.0
aF1.0
aI0
aI0
aI0
aF1.0
aI0
aF1.0
aF-1.0
aF1.0
aI0
aI0
aI0
aF1.0
aF-1.0
aF-1.0
aI0
aF-1.0
aI0
aI0
aF-1.0
aF-1.0
aI0
aF1.0
aI0
aF-1.0
aF-1.0
aF1.0
aF1.0
aF1.0
aF-1.0
aF-1.0
aF1.0
aI0
aF-1.0
aF-1.0
aF-1.0
aF1.0
aF1.0
aF1.0
aF1.0
aF1.0
aF1.0
aF1.0
aF1.0
aF-1.0
aF1.0
aF1.0
aI0
aF1.0
aF-1.0
aF1.0
aF1.0
aI0
aI0
aF-1.0
aF-1.0
aF1.0
aF1.0
aF-1.0
aF1.0
aF1.0
aF-1.0
aI0
aF1.0
aF-1.0
aF1.0
aF-1.0
aF1.0
aI0
aF-1.0
aI0
aF-1.0
aF1.0
aI0
aI0
aF-1.0
aF-1.0
aF1.0
aI0
aF1.0
aF1.0
aa(lp77
F-1.0
aF-1.0
aF1.0
aF-1.0
aI0
aF-1.0
aF-1.0
aF1.0
aF-1.0
aF1.0
aI0
aF1.0
aF-1.0
aI0
aF-1.0
aF1.0
aI0
aF1.0
aF-1.0
aI0
aI0
aI0
aF-1.0
aI0
aF-1.0
aF1.0
aF-1.0
aI0
aI0
aI0
aF-1.0
aF1.0
aF1.0
aI0
aF1.0
aI0
aI0
aF1.0
aF1.0
aI0
aF-1.0
aI0
aF1.0
aF1.0
aF-1.0
aF-1.0
aF-1.0
aF1.0
aF1.0
aF-1.0
aI0
aF1.0
aF1.0
aF1.0
aF-1.0
aF-1.0
aF-1.0
aF-1.0
aF-1.0
aF-1.0
aF-1.0
aF-1.0
aF1.0
aF-1.0
aF-1.0
aI0
aF-1.0
aF1.0
aF-1.0
aF-1.0
aI0
aI0
aF1.0
aF1.0
aF-1.0
aF-1.0
aF1.0
aF-1.0
aF-1.0
aF1.0
aI0
aF-1.0
aF1.0
aF-1.0
aF1.0
aF-1.0
aI0
aF1.0
aI0
aF1.0
aF-1.0
aI0
aI0
aF1.0
aF1.0
aF-1.0
aI0
aF-1.0
aF-1.0
aa(lp78
F1.0
aF1.0
aF-1.0
aF1.0
aI0
aF1.0
aF1.0
aF-1.0
aF1.0
aF-1.0
aI0
aF-1.0
aF1.0
aI0
aF1.0
aF-1.0
aI0
aF-1.0
aF1.0
aI0
aI0
aI0
aF1.0
aI0
aF1.0
aF-1.0
aF1.0
aI0
aI0
aI0
aF1.0
aF-1.0
aF-1.0
aI0
aF-1.0
aI0
aI0
aF-1.0
aF-1.0
aI0
aF1.0
aI0
aF-1.0
aF-1.0
aF1.0
aF1.0
aF1.0
aF-1.0
aF-1.0
aF1.0
aI0
aF-1.0
aF-1.0
aF-1.0
aF1.0
aF1.0
aF1.0
aF1.0
aF1.0
aF1.0
aF1.0
aF1.0
aF-1.0
aF1.0
aF1.0
aI0
aF1.0
aF-1.0
aF1.0
aF1.0
aI0
aI0
aF-1.0
aF-1.0
aF1.0
aF1.0
aF-1.0
aF1.0
aF1.0
aF-1.0
aI0
aF1.0
aF-1.0
aF1.0
aF-1.0
aF1.0
aI0
aF-1.0
aI0
aF-1.0
aF1.0
aI0
aI0
aF-1.0
aF-1.0
aF1.0
aI0
aF1.0
aF1.0
aa(lp79
F1.0
aF1.0
aF-1.0
aF1.0
aI0
aF1.0
aF1.0
aF-1.0
aF1.0
aF-1.0
aI0
aF-1.0
aF1.0
aI0
aF1.0
aF-1.0
aI0
aF-1.0
aF1.0
aI0
aI0
aI0
aF1.0
aI0
aF1.0
aF-1.0
aF1.0
aI0
aI0
aI0
aF1.0
aF-1.0
aF-1.0
aI0
aF-1.0
aI0
aI0
aF-1.0
aF-1.0
aI0
aF1.0
aI0
aF-1.0
aF-1.0
aF1.0
aF1.0
aF1.0
aF-1.0
aF-1.0
aF1.0
aI0
aF-1.0
aF-1.0
aF-1.0
aF1.0
aF1.0
aF1.0
aF1.0
aF1.0
aF1.0
aF1.0
aF1.0
aF-1.0
aF1.0
aF1.0
aI0
aF1.0
aF-1.0
aF1.0
aF1.0
aI0
aI0
aF-1.0
aF-1.0
aF1.0
aF1.0
aF-1.0
aF1.0
aF1.0
aF-1.0
aI0
aF1.0
aF-1.0
aF1.0
aF-1.0
aF1.0
aI0
aF-1.0
aI0
aF-1.0
aF1.0
aI0
aI0
aF-1.0
aF-1.0
aF1.0
aI0
aF1.0
aF1.0
aa(lp80
F-1.0
aF-1.0
aF1.0
aF-1.0
aI0
aF-1.0
aF-1.0
aF1.0
aF-1.0
aF1.0
aI0
aF1.0
aF-1.0
aI0
aF-1.0
aF1.0
aI0
aF1.0
aF-1.0
aI0
aI0
aI0
aF-1.0
aI0
aF-1.0
aF1.0
aF-1.0
aI0
aI0
aI0
aF-1.0
aF1.0
aF1.0
aI0
aF1.0
aI0
aI0
aF1.0
aF1.0
aI0
aF-1.0
aI0
aF1.0
aF1.0
aF-1.0
aF-1.0
aF-1.0
aF1.0
aF1.0
aF-1.0
aI0
aF1.0
aF1.0
aF1.0
aF-1.0
aF-1.0
aF-1.0
aF-1.0
aF-1.0
aF-1.0
aF-1.0
aF-1.0
aF1.0
aF-1.0
aF-1.0
aI0
aF-1.0
aF1.0
aF-1.0
aF-1.0
aI0
aI0
aF1.0
aF1.0
aF-1.0
aF-1.0
aF1.0
aF-1.0
aF-1.0
aF1.0
aI0
aF-1.0
aF1.0
aF-1.0
aF1.0
aF-1.0
aI0
aF1.0
aI0
aF1.0
aF-1.0
aI0
aI0
aF1.0
aF1.0
aF-1.0
aI0
aF-1.0
aF-1.0
aa(lp81
I0
aI0
aI0
aI0
aI0
aI0
aI0
aI0
aI0
aI0
aI0
aI0
aI0
aI0
aI0
aI0
aI0
aI0
aI0
aI0
aI0
aI0
aI0
aI0
aI0
aI0
aI0
aI0
aI0
aI0
aI0
aI0
aI0
aI0
aI0
aI0
aI0
aI0
aI0
aI0
aI0
aI0
aI0
aI0
aI0
aI0
aI0
aI0
aI0
aI0
aI0
aI0
aI0
aI0
aI0
aI0
aI0
aI0
aI0
aI0
aI0
aI0
aI0
aI0
aI0
aI0
aI0
aI0
aI0
aI0
aI0
aI0
aI0
aI0
aI0
aI0
aI0
aI0
aI0
aI0
aF1.0
aI0
aI0
aI0
aI0
aI0
aI0
aI0
aI0
aI0
aI0
aI0
aI0
aI0
aI0
aI0
aI0
aI0
aI0
aa(lp82
F1.0
aF1.0
aF-1.0
aF1.0
aI0
aF1.0
aF1.0
aF-1.0
aF1.0
aF-1.0
aI0
aF-1.0
aF1.0
aI0
aF1.0
aF-1.0
aI0
aF-1.0
aF1.0
aI0
aI0
aI0
aF1.0
aI0
aF1.0
aF-1.0
aF1.0
aI0
aI0
aI0
aF1.0
aF-1.0
aF-1.0
aI0
aF-1.0
aI0
aI0
aF-1.0
aF-1.0
aI0
aF1.0
aI0
aF-1.0
aF-1.0
aF1.0
aF1.0
aF1.0
aF-1.0
aF-1.0
aF1.0
aI0
aF-1.0
aF-1.0
aF-1.0
aF1.0
aF1.0
aF1.0
aF1.0
aF1.0
aF1.0
aF1.0
aF1.0
aF-1.0
aF1.0
aF1.0
aI0
aF1.0
aF-1.0
aF1.0
aF1.0
aI0
aI0
aF-1.0
aF-1.0
aF1.0
aF1.0
aF-1.0
aF1.0
aF1.0
aF-1.0
aI0
aF1.0
aF-1.0
aF1.0
aF-1.0
aF1.0
aI0
aF-1.0
aI0
aF-1.0
aF1.0
aI0
aI0
aF-1.0
aF-1.0
aF1.0
aI0
aF1.0
aF1.0
aa(lp83
F-1.0
aF-1.0
aF1.0
aF-1.0
aI0
aF-1.0
aF-1.0
aF1.0
aF-1.0
aF1.0
aI0
aF1.0
aF-1.0
aI0
aF-1.0
aF1.0
aI0
aF1.0
aF-1.0
aI0
aI0
aI0
aF-1.0
aI0
aF-1.0
aF1.0
aF-1.0
aI0
aI0
aI0
aF-1.0
aF1.0
aF1.0
aI0
aF1.0
aI0
aI0
aF1.0
aF1.0
aI0
aF-1.0
aI0
aF1.0
aF1.0
aF-1.0
aF-1.0
aF-1.0
aF1.0
aF1.0
aF-1.0
aI0
aF1.0
aF1.0
aF1.0
aF-1.0
aF-1.0
aF-1.0
aF-1.0
aF-1.0
aF-1.0
aF-1.0
aF-1.0
aF1.0
aF-1.0
aF-1.0
aI0
aF-1.0
aF1.0
aF-1.0
aF-1.0
aI0
aI0
aF1.0
aF1.0
aF-1.0
aF-1.0
aF1.0
aF-1.0
aF-1.0
aF1.0
aI0
aF-1.0
aF1.0
aF-1.0
aF1.0
aF-1.0
aI0
aF1.0
aI0
aF1.0
aF-1.0
aI0
aI0
aF1.0
aF1.0
aF-1.0
aI0
aF-1.0
aF-1.0
aa(lp84
F1.0
aF1.0
aF-1.0
aF1.0
aI0
aF1.0
aF1.0
aF-1.0
aF1.0
aF-1.0
aI0
aF-1.0
aF1.0
aI0
aF1.0
aF-1.0
aI0
aF-1.0
aF1.0
aI0
aI0
aI0
aF1.0
aI0
aF1.0
aF-1.0
aF1.0
aI0
aI0
aI0
aF1.0
aF-1.0
aF-1.0
aI0
aF-1.0
aI0
aI0
aF-1.0
aF-1.0
aI0
aF1.0
aI0
aF-1.0
aF-1.0
aF1.0
aF1.0
aF1.0
aF-1.0
aF-1.0
aF1.0
aI0
aF-1.0
aF-1.0
aF-1.0
aF1.0
aF1.0
aF1.0
aF1.0
aF1.0
aF1.0
aF1.0
aF1.0
aF-1.0
aF1.0
aF1.0
aI0
aF1.0
aF-1.0
aF1.0
aF1.0
aI0
aI0
aF-1.0
aF-1.0
aF1.0
aF1.0
aF-1.0
aF1.0
aF1.0
aF-1.0
aI0
aF1.0
aF-1.0
aF1.0
aF-1.0
aF1.0
aI0
aF-1.0
aI0
aF-1.0
aF1.0
aI0
aI0
aF-1.0
aF-1.0
aF1.0
aI0
aF1.0
aF1.0
aa(lp85
F-1.0
aF-1.0
aF1.0
aF-1.0
aI0
aF-1.0
aF-1.0
aF1.0
aF-1.0
aF1.0
aI0
aF1.0
aF-1.0
aI0
aF-1.0
aF1.0
aI0
aF1.0
aF-1.0
aI0
aI0
aI0
aF-1.0
aI0
aF-1.0
aF1.0
aF-1.0
aI0
aI0
aI0
aF-1.0
aF1.0
aF1.0
aI0
aF1.0
aI0
aI0
aF1.0
aF1.0
aI0
aF-1.0
aI0
aF1.0
aF1.0
aF-1.0
aF-1.0
aF-1.0
aF1.0
aF1.0
aF-1.0
aI0
aF1.0
aF1.0
aF1.0
aF-1.0
aF-1.0
aF-1.0
aF-1.0
aF-1.0
aF-1.0
aF-1.0
aF-1.0
aF1.0
aF-1.0
aF-1.0
aI0
aF-1.0
aF1.0
aF-1.0
aF-1.0
aI0
aI0
aF1.0
aF1.0
aF-1.0
aF-1.0
aF1.0
aF-1.0
aF-1.0
aF1.0
aI0
aF-1.0
aF1.0
aF-1.0
aF1.0
aF-1.0
aI0
aF1.0
aI0
aF1.0
aF-1.0
aI0
aI0
aF1.0
aF1.0
aF-1.0
aI0
aF-1.0
aF-1.0
aa(lp86
F1.0
aF1.0
aF-1.0
aF1.0
aI0
aF1.0
aF1.0
aF-1.0
aF1.0
aF-1.0
aI0
aF-1.0
aF1.0
aI0
aF1.0
aF-1.0
aI0
aF-1.0
aF1.0
aI0
aI0
aI0
aF1.0
aI0
aF1.0
aF-1.0
aF1.0
aI0
aI0
aI0
aF1.0
aF-1.0
aF-1.0
aI0
aF-1.0
aI0
aI0
aF-1.0
aF-1.0
aI0
aF1.0
aI0
aF-1.0
aF-1.0
aF1.0
aF1.0
aF1.0
aF-1.0
aF-1.0
aF1.0
aI0
aF-1.0
aF-1.0
aF-1.0
aF1.0
aF1.0
aF1.0
aF1.0
aF1.0
aF1.0
aF1.0
aF1.0
aF-1.0
aF1.0
aF1.0
aI0
aF1.0
aF-1.0
aF1.0
aF1.0
aI0
aI0
aF-1.0
aF-1.0
aF1.0
aF1.0
aF-1.0
aF1.0
aF1.0
aF-1.0
aI0
aF1.0
aF-1.0
aF1.0
aF-1.0
aF1.0
aI0
aF-1.0
aI0
aF-1.0
aF1.0
aI0
aI0
aF-1.0
aF-1.0
aF1.0
aI0
aF1.0
aF1.0
aa(lp87
I0
aI0
aI0
aI0
aI0
aI0
aI0
aI0
aI0
aI0
aI0
aI0
aI0
aI0
aI0
aI0
aI0
aI0
aI0
aI0
aI0
aI0
aI0
aI0
aI0
aI0
aI0
aI0
aI0
aI0
aI0
aI0
aI0
aI0
aI0
aI0
aI0
aI0
aI0
aI0
aI0
aI0
aI0
aI0
aI0
aI0
aI0
aI0
aI0
aI0
aI0
aI0
aI0
aI0
aI0
aI0
aI0
aI0
aI0
aI0
aI0
aI0
aI0
aI0
aI0
aI0
aI0
aI0
aI0
aI0
aI0
aI0
aI0
aI0
aI0
aI0
aI0
aI0
aI0
aI0
aI0
aI0
aI0
aI0
aI0
aI0
aF1.0
aI0
aI0
aI0
aI0
aI0
aI0
aI0
aI0
aI0
aI0
aI0
aI0
aa(lp88
F-1.0
aF-1.0
aF1.0
aF-1.0
aI0
aF-1.0
aF-1.0
aF1.0
aF-1.0
aF1.0
aI0
aF1.0
aF-1.0
aI0
aF-1.0
aF1.0
aI0
aF1.0
aF-1.0
aI0
aI0
aI0
aF-1.0
aI0
aF-1.0
aF1.0
aF-1.0
aI0
aI0
aI0
aF-1.0
aF1.0
aF1.0
aI0
aF1.0
aI0
aI0
aF1.0
aF1.0
aI0
aF-1.0
aI0
aF1.0
aF1.0
aF-1.0
aF-1.0
aF-1.0
aF1.0
aF1.0
aF-1.0
aI0
aF1.0
aF1.0
aF1.0
aF-1.0
aF-1.0
aF-1.0
aF-1.0
aF-1.0
aF-1.0
aF-1.0
aF-1.0
aF1.0
aF-1.0
aF-1.0
aI0
aF-1.0
aF1.0
aF-1.0
aF-1.0
aI0
aI0
aF1.0
aF1.0
aF-1.0
aF-1.0
aF1.0
aF-1.0
aF-1.0
aF1.0
aI0
aF-1.0
aF1.0
aF-1.0
aF1.0
aF-1.0
aI0
aF1.0
aI0
aF1.0
aF-1.0
aI0
aI0
aF1.0
aF1.0
aF-1.0
aI0
aF-1.0
aF-1.0
aa(lp89
I0
aI0
aI0
aI0
aI0
aI0
aI0
aI0
aI0
aI0
aI0
aI0
aI0
aI0
aI0
aI0
aI0
aI0
aI0
aI0
aI0
aI0
aI0
aI0
aI0
aI0
aI0
aI0
aI0
aI0
aI0
aI0
aI0
aI0
aI0
aI0
aI0
aI0
aI0
aI0
aI0
aI0
aI0
aI0
aI0
aI0
aI0
aI0
aI0
aI0
aI0
aI0
aI0
aI0
aI0
aI0
aI0
aI0
aI0
aI0
aI0
aI0
aI0
aI0
aI0
aI0
aI0
aI0
aI0
aI0
aI0
aI0
aI0
aI0
aI0
aI0
aI0
aI0
aI0
aI0
aI0
aI0
aI0
aI0
aI0
aI0
aI0
aI0
aF1.0
aI0
aI0
aI0
aI0
aI0
aI0
aI0
aI0
aI0
aI0
aa(lp90
F-1.0
aF-1.0
aF1.0
aF-1.0
aI0
aF-1.0
aF-1.0
aF1.0
aF-1.0
aF1.0
aI0
aF1.0
aF-1.0
aI0
aF-1.0
aF1.0
aI0
aF1.0
aF-1.0
aI0
aI0
aI0
aF-1.0
aI0
aF-1.0
aF1.0
aF-1.0
aI0
aI0
aI0
aF-1.0
aF1.0
aF1.0
aI0
aF1.0
aI0
aI0
aF1.0
aF1.0
aI0
aF-1.0
aI0
aF1.0
aF1.0
aF-1.0
aF-1.0
aF-1.0
aF1.0
aF1.0
aF-1.0
aI0
aF1.0
aF1.0
aF1.0
aF-1.0
aF-1.0
aF-1.0
aF-1.0
aF-1.0
aF-1.0
aF-1.0
aF-1.0
aF1.0
aF-1.0
aF-1.0
aI0
aF-1.0
aF1.0
aF-1.0
aF-1.0
aI0
aI0
aF1.0
aF1.0
aF-1.0
aF-1.0
aF1.0
aF-1.0
aF-1.0
aF1.0
aI0
aF-1.0
aF1.0
aF-1.0
aF1.0
aF-1.0
aI0
aF1.0
aI0
aF1.0
aF-1.0
aI0
aI0
aF1.0
aF1.0
aF-1.0
aI0
aF-1.0
aF-1.0
aa(lp91
F1.0
aF1.0
aF-1.0
aF1.0
aI0
aF1.0
aF1.0
aF-1.0
aF1.0
aF-1.0
aI0
aF-1.0
aF1.0
aI0
aF1.0
aF-1.0
aI0
aF-1.0
aF1.0
aI0
aI0
aI0
aF1.0
aI0
aF1.0
aF-1.0
aF1.0
aI0
aI0
aI0
aF1.0
aF-1.0
aF-1.0
aI0
aF-1.0
aI0
aI0
aF-1.0
aF-1.0
aI0
aF1.0
aI0
aF-1.0
aF-1.0
aF1.0
aF1.0
aF1.0
aF-1.0
aF-1.0
aF1.0
aI0
aF-1.0
aF-1.0
aF-1.0
aF1.0
aF1.0
aF1.0
aF1.0
aF1.0
aF1.0
aF1.0
aF1.0
aF-1.0
aF1.0
aF1.0
aI0
aF1.0
aF-1.0
aF1.0
aF1.0
aI0
aI0
aF-1.0
aF-1.0
aF1.0
aF1.0
aF-1.0
aF1.0
aF1.0
aF-1.0
aI0
aF1.0
aF-1.0
aF1.0
aF-1.0
aF1.0
aI0
aF-1.0
aI0
aF-1.0
aF1.0
aI0
aI0
aF-1.0
aF-1.0
aF1.0
aI0
aF1.0
aF1.0
aa(lp92
I0
aI0
aI0
aI0
aI0
aI0
aI0
aI0
aI0
aI0
aI0
aI0
aI0
aI0
aI0
aI0
aI0
aI0
aI0
aI0
aI0
aI0
aI0
aI0
aI0
aI0
aI0
aI0
aI0
aI0
aI0
aI0
aI0
aI0
aI0
aI0
aI0
aI0
aI0
aI0
aI0
aI0
aI0
aI0
aI0
aI0
aI0
aI0
aI0
aI0
aI0
aI0
aI0
aI0
aI0
aI0
aI0
aI0
aI0
aI0
aI0
aI0
aI0
aI0
aI0
aI0
aI0
aI0
aI0
aI0
aI0
aI0
aI0
aI0
aI0
aI0
aI0
aI0
aI0
aI0
aI0
aI0
aI0
aI0
aI0
aI0
aI0
aI0
aI0
aI0
aI0
aF1.0
aI0
aI0
aI0
aI0
aI0
aI0
aI0
aa(lp93
I0
aI0
aI0
aI0
aI0
aI0
aI0
aI0
aI0
aI0
aI0
aI0
aI0
aI0
aI0
aI0
aI0
aI0
aI0
aI0
aI0
aI0
aI0
aI0
aI0
aI0
aI0
aI0
aI0
aI0
aI0
aI0
aI0
aI0
aI0
aI0
aI0
aI0
aI0
aI0
aI0
aI0
aI0
aI0
aI0
aI0
aI0
aI0
aI0
aI0
aI0
aI0
aI0
aI0
aI0
aI0
aI0
aI0
aI0
aI0
aI0
aI0
aI0
aI0
aI0
aI0
aI0
aI0
aI0
aI0
aI0
aI0
aI0
aI0
aI0
aI0
aI0
aI0
aI0
aI0
aI0
aI0
aI0
aI0
aI0
aI0
aI0
aI0
aI0
aI0
aI0
aI0
aF1.0
aI0
aI0
aI0
aI0
aI0
aI0
aa(lp94
F-1.0
aF-1.0
aF1.0
aF-1.0
aI0
aF-1.0
aF-1.0
aF1.0
aF-1.0
aF1.0
aI0
aF1.0
aF-1.0
aI0
aF-1.0
aF1.0
aI0
aF1.0
aF-1.0
aI0
aI0
aI0
aF-1.0
aI0
aF-1.0
aF1.0
aF-1.0
aI0
aI0
aI0
aF-1.0
aF1.0
aF1.0
aI0
aF1.0
aI0
aI0
aF1.0
aF1.0
aI0
aF-1.0
aI0
aF1.0
aF1.0
aF-1.0
aF-1.0
aF-1.0
aF1.0
aF1.0
aF-1.0
aI0
aF1.0
aF1.0
aF1.0
aF-1.0
aF-1.0
aF-1.0
aF-1.0
aF-1.0
aF-1.0
aF-1.0
aF-1.0
aF1.0
aF-1.0
aF-1.0
aI0
aF-1.0
aF1.0
aF-1.0
aF-1.0
aI0
aI0
aF1.0
aF1.0
aF-1.0
aF-1.0
aF1.0
aF-1.0
aF-1.0
aF1.0
aI0
aF-1.0
aF1.0
aF-1.0
aF1.0
aF-1.0
aI0
aF1.0
aI0
aF1.0
aF-1.0
aI0
aI0
aF1.0
aF1.0
aF-1.0
aI0
aF-1.0
aF-1.0
aa(lp95
F-1.0
aF-1.0
aF1.0
aF-1.0
aI0
aF-1.0
aF-1.0
aF1.0
aF-1.0
aF1.0
aI0
aF1.0
aF-1.0
aI0
aF-1.0
aF1.0
aI0
aF1.0
aF-1.0
aI0
aI0
aI0
aF-1.0
aI0
aF-1.0
aF1.0
aF-1.0
aI0
aI0
aI0
aF-1.0
aF1.0
aF1.0
aI0
aF1.0
aI0
aI0
aF1.0
aF1.0
aI0
aF-1.0
aI0
aF1.0
aF1.0
aF-1.0
aF-1.0
aF-1.0
aF1.0
aF1.0
aF-1.0
aI0
aF1.0
aF1.0
aF1.0
aF-1.0
aF-1.0
aF-1.0
aF-1.0
aF-1.0
aF-1.0
aF-1.0
aF-1.0
aF1.0
aF-1.0
aF-1.0
aI0
aF-1.0
aF1.0
aF-1.0
aF-1.0
aI0
aI0
aF1.0
aF1.0
aF-1.0
aF-1.0
aF1.0
aF-1.0
aF-1.0
aF1.0
aI0
aF-1.0
aF1.0
aF-1.0
aF1.0
aF-1.0
aI0
aF1.0
aI0
aF1.0
aF-1.0
aI0
aI0
aF1.0
aF1.0
aF-1.0
aI0
aF-1.0
aF-1.0
aa(lp96
F1.0
aF1.0
aF-1.0
aF1.0
aI0
aF1.0
aF1.0
aF-1.0
aF1.0
aF-1.0
aI0
aF-1.0
aF1.0
aI0
aF1.0
aF-1.0
aI0
aF-1.0
aF1.0
aI0
aI0
aI0
aF1.0
aI0
aF1.0
aF-1.0
aF1.0
aI0
aI0
aI0
aF1.0
aF-1.0
aF-1.0
aI0
aF-1.0
aI0
aI0
aF-1.0
aF-1.0
aI0
aF1.0
aI0
aF-1.0
aF-1.0
aF1.0
aF1.0
aF1.0
aF-1.0
aF-1.0
aF1.0
aI0
aF-1.0
aF-1.0
aF-1.0
aF1.0
aF1.0
aF1.0
aF1.0
aF1.0
aF1.0
aF1.0
aF1.0
aF-1.0
aF1.0
aF1.0
aI0
aF1.0
aF-1.0
aF1.0
aF1.0
aI0
aI0
aF-1.0
aF-1.0
aF1.0
aF1.0
aF-1.0
aF1.0
aF1.0
aF-1.0
aI0
aF1.0
aF-1.0
aF1.0
aF-1.0
aF1.0
aI0
aF-1.0
aI0
aF-1.0
aF1.0
aI0
aI0
aF-1.0
aF-1.0
aF1.0
aI0
aF1.0
aF1.0
aa(lp97
I0
aI0
aI0
aI0
aI0
aI0
aI0
aI0
aI0
aI0
aI0
aI0
aI0
aI0
aI0
aI0
aI0
aI0
aI0
aI0
aI0
aI0
aI0
aI0
aI0
aI0
aI0
aI0
aI0
aI0
aI0
aI0
aI0
aI0
aI0
aI0
aI0
aI0
aI0
aI0
aI0
aI0
aI0
aI0
aI0
aI0
aI0
aI0
aI0
aI0
aI0
aI0
aI0
aI0
aI0
aI0
aI0
aI0
aI0
aI0
aI0
aI0
aI0
aI0
aI0
aI0
aI0
aI0
aI0
aI0
aI0
aI0
aI0
aI0
aI0
aI0
aI0
aI0
aI0
aI0
aI0
aI0
aI0
aI0
aI0
aI0
aI0
aI0
aI0
aI0
aI0
aI0
aI0
aI0
aI0
aI0
aF1.0
aI0
aI0
aa(lp98
F1.0
aF1.0
aF-1.0
aF1.0
aI0
aF1.0
aF1.0
aF-1.0
aF1.0
aF-1.0
aI0
aF-1.0
aF1.0
aI0
aF1.0
aF-1.0
aI0
aF-1.0
aF1.0
aI0
aI0
aI0
aF1.0
aI0
aF1.0
aF-1.0
aF1.0
aI0
aI0
aI0
aF1.0
aF-1.0
aF-1.0
aI0
aF-1.0
aI0
aI0
aF-1.0
aF-1.0
aI0
aF1.0
aI0
aF-1.0
aF-1.0
aF1.0
aF1.0
aF1.0
aF-1.0
aF-1.0
aF1.0
aI0
aF-1.0
aF-1.0
aF-1.0
aF1.0
aF1.0
aF1.0
aF1.0
aF1.0
aF1.0
aF1.0
aF1.0
aF-1.0
aF1.0
aF1.0
aI0
aF1.0
aF-1.0
aF1.0
aF1.0
aI0
aI0
aF-1.0
aF-1.0
aF1.0
aF1.0
aF-1.0
aF1.0
aF1.0
aF-1.0
aI0
aF1.0
aF-1.0
aF1.0
aF-1.0
aF1.0
aI0
aF-1.0
aI0
aF-1.0
aF1.0
aI0
aI0
aF-1.0
aF-1.0
aF1.0
aI0
aF1.0
aF1.0
aa(lp99
F1.0
aF1.0
aF-1.0
aF1.0
aI0
aF1.0
aF1.0
aF-1.0
aF1.0
aF-1.0
aI0
aF-1.0
aF1.0
aI0
aF1.0
aF-1.0
aI0
aF-1.0
aF1.0
aI0
aI0
aI0
aF1.0
aI0
aF1.0
aF-1.0
aF1.0
aI0
aI0
aI0
aF1.0
aF-1.0
aF-1.0
aI0
aF-1.0
aI0
aI0
aF-1.0
aF-1.0
aI0
aF1.0
aI0
aF-1.0
aF-1.0
aF1.0
aF1.0
aF1.0
aF-1.0
aF-1.0
aF1.0
aI0
aF-1.0
aF-1.0
aF-1.0
aF1.0
aF1.0
aF1.0
aF1.0
aF1.0
aF1.0
aF1.0
aF1.0
aF-1.0
aF1.0
aF1.0
aI0
aF1.0
aF-1.0
aF1.0
aF1.0
aI0
aI0
aF-1.0
aF-1.0
aF1.0
aF1.0
aF-1.0
aF1.0
aF1.0
aF-1.0
aI0
aF1.0
aF-1.0
aF1.0
aF-1.0
aF1.0
aI0
aF-1.0
aI0
aF-1.0
aF1.0
aI0
aI0
aF-1.0
aF-1.0
aF1.0
aI0
aF1.0
aF1.0
aa.