(lp0
F156.33088425067035
aF136.86546131217423
aF219.08907069938476
aF278.0028424318127
aF164.58602469062077
aF108.66971389719767
aF141.37805784904933
aF157.0578726045648
aF190.83059237915108
aF270.17888844583547
aF106.64497918374859
aF196.15452113965128
aF169.68061525558505
aF71.43368169125316
aF283.5802565054373
aF36.90192707905007
aF207.7841060340518
aF13.404098193403291
aF1.808311892626413
aF188.4343107952365
aF146.7875118588531
aF295.80960436162985
aF140.6019479685354
aF149.72351070043985
aF64.00553128146463
aF170.98330327855444
aF101.01953272962837
aF1.0327964068702178
aF22.072350313056145
aF78.01620534268656
aF33.51727274709296
aF14.31941585814387
aF47.85219711293841
aF222.562139528874
aF250.29773066427268
aF276.09832328882305
aF193.40704183823328
aF5.118392070763312
aF178.72904900516482
aF84.56280800831462
aF293.5867162469489
aF276.8225275369366
aF102.96154301437409
aF119.23412395619549
aF73.6853836619347
aF123.46470388414738
aF4.878312867903068
aF258.97268738572876
aF126.16939139777247
aF183.40819309523334
aF192.69676826621287
aF249.58836654982295
aF183.26125342405274
aF67.48806029702266
aF171.20645881948388
aF78.25827792574465
aF103.64205200496473
aF59.09514797738723
aF172.4743855080676
aF95.44156705510235
aF243.767129880761
aF267.76923258454417
aF130.32606258740682
aF128.61284250792562
aF89.45247525482415
aF163.71257027958976
aF124.60707344654843
aF183.18163261825998
aF295.3991637302461
aF192.28215631638028
aF120.86689831017986
aF154.70197935563968
aF106.88275583132193
aF66.68097411524666
aF230.26209623581065
aF89.69767101684022
aF76.95565921561385
aF79.84336240081285
aF201.4169204161451
aF291.1978671692396
aF179.78345745691786
aF140.50649283604554
aF77.18428479316853
aF214.03802039977668
aF254.25947930657912
aF279.1408001236253
aF241.35598267454694
aF203.2683991701183
aF80.78420786844738
aF189.50267312520376
aF291.05177581510094
aF147.29222685102312
aF170.02079577088534
aF87.94494769083494
aF23.700055778753438
aF260.54585541433016
aF276.2564071586965
aF256.38259826407557
aF202.06867604276405
a.
