(lp0
F26.447001547174633
aF24.63959746803784
aF25.996575103273962
aF21.7617310292229
aF20.611955563028385
aF21.972210565141882
aF20.27227497605922
aF26.246743255759046
aF25.556399574132428
aF28.26338842375887
aF26.116116255579712
aF21.38379313618109
aF26.67559291064282
aF27.41521439504335
aF20.835813480251076
aF25.120065022539467
aF20.573139796638614
aF22.17915627193219
aF27.17775594757138
aF23.499285295232657
aF26.89318083663787
aF29.08917539324951
aF21.239233487930978
aF20.544015994160258
aF22.00072865044364
aF22.566873318332938
aF26.501976628867787
aF28.43608456371688
aF22.266273493754312
aF27.05706375773666
aF21.021421668310815
aF27.413079603177486
aF21.937411344543627
aF22.1202475336441
aF25.327504999772984
aF23.51808126402927
aF28.432231545587896
aF27.9560369595857
aF26.93413440045754
aF29.14939840076996
aF24.9443168128662
aF22.04746113064839
aF27.064683436438784
aF27.408616185622684
aF23.54489689116474
aF27.176057182758036
aF25.35253026688117
aF27.87690664171148
aF23.407999195244113
aF21.404079633780167
aF27.019213259526726
aF20.043801029614162
aF20.497538078485555
aF27.60797835113486
aF26.218813780177648
aF25.106974354582114
aF22.865362635273645
aF21.039513810449343
aF26.25681488283414
aF20.543593485088593
aF27.417189535999476
aF24.642382827762223
aF23.574146861656686
aF24.571902473457424
aF26.55286102911267
aF24.33069328732614
aF29.757557896043046
aF25.417896967567405
aF21.248769346401176
aF25.914510612746852
aF22.957595045076733
aF28.035289350095304
aF25.22848728180172
aF28.256846847412106
aF27.747851767286807
aF23.758946074657267
aF29.547653821330652
aF27.72002908287213
aF26.45234483850459
aF28.82902788525471
aF26.605978051308377
aF23.846487063497406
aF21.47990195751418
aF21.228783146122783
aF20.26086343423157
aF27.205213980206537
aF21.882094448318476
aF20.54980378372317
aF27.082070578371336
aF29.400498854506566
aF23.297328627081008
aF28.952356382085668
aF24.332792814897672
aF24.757728498193146
aF24.313463479235583
aF20.244883879676607
aF27.97043776090441
aF26.679731122769
aF22.481118438155015
a.