(lp0
F100.76985984459087
aF89.82693605775978
aF126.13143231810426
aF88.48954084988452
aF73.34669299210609
aF98.54090661944667
aF62.656672766591136
aF119.60933666611048
aF55.64146815420968
aF142.19080046900262
aF108.95153480017615
aF133.92815233497632
aF123.87108380890453
aF129.7879329936535
aF149.17052851987523
aF81.28562948952668
aF51.746142858094366
aF54.21390149333237
aF143.60766545320521
aF128.17893784677125
aF84.45471516676443
aF115.72214208495417
aF98.28889607007537
aF121.99957542383115
aF51.246181925765235
aF89.8486656315514
aF136.79074216058356
aF84.37615884581959
aF54.41410847255123
aF55.8830621436484
aF96.58572497204416
aF130.69574007457953
aF77.46421143089962
aF149.18249037786836
aF68.63842361827062
aF127.13637489557485
aF80.4664548214306
aF95.46563749154521
aF88.22198177355916
aF130.80285661460528
aF61.39197790690082
aF146.94977117484606
aF99.72424915278901
aF133.46390814622532
aF132.25203602516484
aF84.89620294854932
aF58.59054002754445
aF84.80936261417246
aF93.61665154712449
aF131.40646290657122
aF116.18997362799206
aF64.63119970156205
aF78.629533796088
aF134.2186539789004
aF100.72895507554625
aF53.224444854842766
aF82.52184118733933
aF112.3471642520247
aF84.26040710408827
aF90.01971053560969
aF104.37852525522872
aF144.50950292881066
aF65.75591129466225
aF107.18046536927528
aF64.00743284984837
aF69.48169150898272
aF107.29852344566828
aF86.24750372934307
aF97.92665401687219
aF128.49666221765273
aF95.12714887267155
aF65.87252374343888
aF110.9406018266599
aF137.75338164835796
aF139.46468016600613
aF118.77474791887319
aF87.9130415858131
aF105.12204172560405
aF138.23098802303218
aF102.75882335293832
aF118.79054713315428
aF129.21125020401854
aF102.70424540992295
aF144.08316903108957
aF120.77211515500771
aF116.95083021121657
aF65.3056982721568
aF71.5367400633456
aF112.44081042271003
aF68.33465897240865
aF142.58255991929218
aF64.85960952746436
aF99.27809224080052
aF81.91358236983382
aF61.623939237641245
aF79.5530247671464
aF144.77439690399962
aF83.93904598098894
aF97.45108668449903
a.