(lp0
F142.99450779232674
aF139.41938081595362
aF94.90192034851151
aF113.77292496516088
aF58.082939789079326
aF86.88602876235612
aF59.88023293550299
aF112.58543407613467
aF141.7687039183108
aF67.3577949783844
aF55.487445472923966
aF113.36950994458269
aF140.76396712066247
aF116.96016446572432
aF145.35090414897763
aF134.6025698796226
aF51.441521594388774
aF95.62588457449975
aF98.77502408998089
aF120.06713609632982
aF105.4344245748421
aF124.65311094193669
aF82.03988340008848
aF60.52965028420939
aF140.86964513747927
aF122.90384086416034
aF94.82193860520675
aF94.73156331079903
aF134.3114144376205
aF129.77566672093621
aF128.615086031255
aF76.71562049442485
aF136.45348897037096
aF135.8081059710937
aF53.40638566856551
aF108.84248418467594
aF69.74095627126653
aF62.659148633867666
aF138.16233390224954
aF54.23028762290517
aF104.22477203056258
aF93.78680959647787
aF120.23103927350526
aF134.36008238194688
aF132.85001254101707
aF111.43567868030064
aF93.3903511780743
aF55.497073813041055
aF123.68285146655893
aF121.95259230850756
aF99.03573311301048
aF72.2281966164222
aF74.37805638539935
aF90.18589319578652
aF56.24773185701294
aF91.22946660731003
aF90.30991956862022
aF121.54719574263214
aF114.22360194914903
aF122.52032160373496
aF73.2082661778424
aF139.38383891149746
aF127.46515201331808
aF79.84120068867219
aF136.33677254984488
aF73.76520609090049
aF100.7995512068164
aF97.43267835727215
aF96.56131779760717
aF108.19685018202313
aF61.89141273700783
aF111.84041416236187
aF134.0735472791641
aF109.16998432619673
aF101.80476912803653
aF61.93167080285751
aF128.783763595038
aF105.39711883494698
aF69.87708866305985
aF97.95584220443686
aF125.1634337047557
aF115.1585330962491
aF92.96802350179209
aF130.9966652194948
aF111.9908774614194
aF123.43521134441424
aF141.74546695908796
aF134.60350278707222
aF111.52374081360315
aF78.94104310875186
aF109.90620373490272
aF144.16344331010097
aF65.46784195263409
aF146.20599546313167
aF117.47352123842731
aF75.06115757258873
aF121.16653109086128
aF84.79074313140612
aF82.14937010577347
a.