(lp0
I125
aI111
aI163
aI123
aI163
aI116
aI98
aI128
aI143
aI123
aI146
aI109
aI148
aI155
aI111
aI109
aI104
aI100
aI153
aI147
aI137
aI164
aI109
aI160
aI101
aI120
aI138
aI168
aI118
aI138
aI105
aI122
aI118
aI134
aI166
aI114
aI162
aI158
aI153
aI165
aI140
aI162
aI152
aI155
aI159
aI167
aI143
aI131
aI126
aI110
aI136
aI148
aI104
aI155
aI147
aI142
aI144
aI117
aI147
aI100
aI156
aI137
aI129
aI148
aI150
aI167
aI166
aI142
aI112
aI141
aI162
aI110
aI134
aI166
aI130
aI131
aI168
aI167
aI149
aI115
aI150
aI124
aI165
aI113
aI130
aI155
aI146
aI103
aI104
aI127
aI127
aI164
aI109
aI145
aI133
aI102
aI157
aI144
aI168
a.