(lp0
<<<<<<< HEAD
I258
aI239
aI280
aI248
aI269
aI238
aI236
aI253
aI261
aI252
aI268
aI252
aI265
aI263
aI241
aI246
aI244
aI222
aI284
aI267
aI262
aI286
aI236
aI270
aI233
aI254
aI265
aI280
aI248
aI254
aI249
aI260
aI253
aI254
aI287
aI252
aI267
aI272
aI267
aI269
aI262
aI283
aI275
aI264
aI266
aI292
aI259
aI245
aI240
aI239
aI266
aI265
aI236
aI278
aI262
aI252
aI259
aI248
aI273
aI227
aI283
aI275
aI254
aI269
aI275
aI282
aI285
aI251
aI238
aI264
aI284
aI240
aI267
aI286
aI266
aI271
aI276
aI281
aI284
aI241
aI264
aI257
aI294
aI231
aI248
aI287
aI273
aI230
aI247
aI256
aI256
aI294
aI245
aI275
aI252
aI239
aI274
aI253
aI279
=======
I125
aI117
aI167
aI125
aI167
aI117
aI105
aI133
aI143
aI125
aI143
aI111
aI154
aI154
aI111
aI111
aI105
aI105
aI154
aI154
aI143
aI167
aI111
aI167
aI105
aI125
aI143
aI167
aI117
aI143
aI111
aI125
aI117
aI133
aI167
aI117
aI167
aI154
aI154
aI167
aI143
aI167
aI154
aI154
aI154
aI167
aI143
aI133
aI133
aI111
aI133
aI154
aI105
aI154
aI154
aI143
aI143
aI125
aI154
aI105
aI154
aI143
aI133
aI154
aI154
aI167
aI167
aI143
aI111
aI143
aI167
aI111
aI133
aI167
aI133
aI133
aI167
aI167
aI154
aI117
aI154
aI125
aI167
aI111
aI133
aI154
aI154
aI105
aI105
aI125
aI125
aI167
aI111
aI143
aI133
aI105
aI154
aI143
aI167
>>>>>>> train
a.