(lp0
<<<<<<< HEAD
I160
aI139
aI162
aI145
aI180
aI144
aI132
aI149
aI138
aI140
aI180
aI148
aI161
aI169
aI158
aI120
aI141
aI136
aI158
aI169
aI149
aI168
aI133
aI177
aI153
aI145
aI172
aI167
aI145
aI156
aI141
aI146
aI140
aI144
aI175
aI143
aI184
aI164
aI169
aI175
aI157
aI156
aI152
aI163
aI158
aI180
aI158
aI155
aI145
aI146
aI160
aI165
aI142
aI160
aI165
aI160
aI158
aI147
aI156
aI137
aI177
aI154
aI146
aI166
aI168
aI175
aI164
aI154
aI131
aI146
aI179
aI138
aI146
aI164
aI155
aI143
aI172
aI176
aI153
aI147
aI164
aI139
aI165
aI126
aI160
aI180
aI156
aI131
aI142
aI139
aI146
aI177
aI136
aI163
aI160
aI131
aI167
aI168
aI174
=======
I0
aI0
aI105
aI0
aI105
aI0
aI0
aI0
aI54
aI0
aI89
aI0
aI105
aI105
aI0
aI0
aI0
aI0
aI105
aI105
aI1
aI105
aI0
aI105
aI0
aI0
aI54
aI105
aI0
aI37
aI0
aI0
aI0
aI0
aI105
aI0
aI105
aI105
aI105
aI105
aI34
aI105
aI105
aI105
aI105
aI105
aI46
aI0
aI0
aI0
aI0
aI101
aI0
aI105
aI97
aI50
aI34
aI0
aI65
aI0
aI105
aI4
aI0
aI105
aI105
aI105
aI105
aI58
aI0
aI51
aI105
aI0
aI0
aI105
aI0
aI0
aI105
aI105
aI83
aI0
aI75
aI0
aI105
aI0
aI0
aI105
aI105
aI0
aI0
aI0
aI0
aI105
aI0
aI65
aI0
aI0
aI105
aI92
aI105
>>>>>>> train
a.