(lp0
I154
aI143
aI143
aI117
aI105
aI117
aI105
aI154
aI143
aI167
aI143
aI111
aI154
aI154
aI111
aI143
aI105
aI117
aI154
aI133
aI154
aI167
aI111
aI105
aI117
aI125
aI154
aI167
aI117
aI154
aI111
aI154
aI117
aI117
aI143
aI133
aI167
aI154
aI154
aI167
aI143
aI117
aI154
aI154
aI133
aI154
aI143
aI154
aI133
aI111
aI154
aI100
aI105
aI154
aI154
aI143
aI125
aI111
aI154
aI105
aI154
aI143
aI133
aI143
aI154
aI133
aI167
aI143
aI111
aI143
aI125
aI154
aI143
aI167
aI154
aI133
aI167
aI154
aI154
aI167
aI154
aI133
aI117
aI111
aI105
aI154
aI117
aI105
aI154
aI167
aI125
aI167
aI133
aI143
aI133
aI105
aI154
aI154
aI125
a.