(lp0
I125
aI167
aI154
aI125
aI167
aI167
aI105
aI117
aI154
aI125
aI143
aI111
aI154
aI154
aI133
aI111
aI105
aI167
aI154
aI154
aI143
aI154
aI154
aI105
aI105
aI125
aI143
aI167
aI143
aI154
aI111
aI125
aI117
aI133
aI133
aI117
aI167
aI154
aI167
aI143
aI143
aI167
aI154
aI154
aI167
aI167
aI154
aI133
aI133
aI143
aI133
aI154
aI105
aI154
aI154
aI143
aI105
aI167
aI154
aI133
aI125
aI167
aI143
aI133
aI154
aI117
aI167
aI167
aI111
aI143
aI167
aI154
aI154
aI167
aI117
aI133
aI125
aI167
aI154
aI133
aI154
aI117
aI167
aI111
aI133
aI117
aI154
aI111
aI105
aI125
aI125
aI154
aI111
aI143
aI133
aI105
aI154
aI143
aI167
a.
