(lp0
I147
aI136
aI178
aI140
aI194
aI141
aI131
aI159
aI148
aI150
aI148
aI131
aI155
aI165
aI149
aI121
aI147
aI159
aI153
aI173
aI162
aI172
aI142
aI155
aI136
aI149
aI158
aI176
aI162
aI152
aI130
aI137
aI149
aI160
aI165
aI138
aI180
aI162
aI180
aI194
aI156
aI156
aI164
aI157
aI179
aI164
aI150
aI162
aI156
aI142
aI160
aI159
aI143
aI164
aI149
aI158
aI159
aI143
aI152
aI141
aI169
aI143
aI153
aI179
aI170
aI177
aI171
aI150
aI132
aI148
aI186
aI146
aI159
aI169
aI145
aI153
aI186
aI175
aI170
aI127
aI149
aI160
aI163
aI132
aI143
aI174
aI166
aI134
aI153
aI150
aI155
aI164
aI145
aI163
aI162
aI127
aI174
aI159
aI171
a.