(lp0
I0
aI105
aI105
aI0
aI105
aI105
aI0
aI0
aI105
aI0
aI93
aI0
aI105
aI105
aI0
aI0
aI0
aI105
aI105
aI105
aI1
aI105
aI105
aI0
aI0
aI0
aI53
aI105
aI10
aI74
aI0
aI0
aI0
aI0
aI0
aI0
aI105
aI105
aI105
aI24
aI3
aI105
aI105
aI105
aI105
aI105
aI105
aI0
aI0
aI105
aI0
aI91
aI0
aI105
aI90
aI39
aI0
aI105
aI98
aI0
aI0
aI105
aI4
aI2
aI105
aI0
aI105
aI105
aI0
aI45
aI105
aI105
aI105
aI105
aI0
aI0
aI0
aI105
aI85
aI0
aI59
aI0
aI105
aI0
aI0
aI0
aI91
aI0
aI0
aI0
aI0
aI84
aI0
aI59
aI0
aI0
aI105
aI71
aI105
a.
