(lp0
<<<<<<< HEAD
I158
aI146
aI164
aI150
aI184
aI138
aI138
aI150
aI153
aI159
aI154
aI135
aI164
aI166
aI151
aI116
aI140
aI157
aI165
aI170
aI143
aI169
aI129
aI173
aI117
aI147
aI178
aI180
aI149
aI152
aI133
aI152
aI146
aI153
aI171
aI146
aI185
aI173
aI170
aI177
aI146
aI166
aI163
aI168
aI167
aI158
aI168
aI150
aI153
aI130
aI155
aI164
aI130
aI168
aI154
aI150
aI164
aI148
aI155
aI145
aI158
aI143
aI156
aI158
aI155
aI167
aI177
aI163
aI131
aI174
aI165
aI143
aI132
aI161
aI154
aI159
aI182
aI176
aI160
aI137
aI154
aI150
aI163
aI141
aI151
aI169
aI162
aI130
aI124
aI174
aI153
aI170
aI129
aI174
aI141
aI137
aI172
aI156
aI166
=======
I0
aI105
aI105
aI0
aI105
aI105
aI0
aI0
aI105
aI0
aI93
aI0
aI105
aI105
aI0
aI0
aI0
aI105
aI105
aI105
aI1
aI105
aI105
aI0
aI0
aI0
aI53
aI105
aI10
aI74
aI0
aI0
aI0
aI0
aI0
aI0
aI105
aI105
aI105
aI24
aI3
aI105
aI105
aI105
aI105
aI105
aI105
aI0
aI0
aI105
aI0
aI91
aI0
aI105
aI90
aI39
aI0
aI105
aI98
aI0
aI0
aI105
aI4
aI2
aI105
aI0
aI105
aI105
aI0
aI45
aI105
aI105
aI105
aI105
aI0
aI0
aI0
aI105
aI85
aI0
aI59
aI0
aI105
aI0
aI0
aI0
aI91
aI0
aI0
aI0
aI0
aI84
aI0
aI59
aI0
aI0
aI105
aI71
aI105
>>>>>>> train
a.