(lp0
(lp1
I74
aI34
aI64
aI8
aI62
aI79
aI41
aI27
aI80
aI32
aI5
aI39
aI31
aI17
aI22
aI97
aI69
aI91
aI36
aI85
aa(lp2
I7
aI90
aI53
aI74
aI49
aI40
aI51
aI62
aI18
aI43
aI25
aI10
aI0
aI3
aI39
aI47
aI26
aI6
aI22
aI44
aa(lp3
I88
aI17
aI48
aI51
aI8
aI12
aI52
aI49
aI13
aI34
aI35
aI32
aI6
aI69
aI50
aI70
aI82
aI31
aI93
aI78
aa(lp4
I2
aI79
aI47
aI74
aI36
aI29
aI45
aI46
aI56
aI51
aI42
aI10
aI31
aI23
aI55
aI18
aI20
aI54
aI1
aI87
aa(lp5
I95
aI86
aI13
aI54
aI11
aI27
aI15
aI25
aI41
aI55
aI73
aI68
aI34
aI1
aI63
aI16
aI49
aI30
aI96
aI47
aa(lp6
I58
aI31
aI79
aI23
aI59
aI9
aI8
aI25
aI10
aI45
aI78
aI21
aI28
aI89
aI42
aI69
aI16
aI56
aI97
aI55
aa(lp7
I96
aI42
aI3
aI7
aI82
aI58
aI15
aI77
aI71
aI72
aI40
aI57
aI66
aI2
aI62
aI8
aI89
aI37
aI28
aI60
aa(lp8
I88
aI85
aI61
aI14
aI21
aI44
aI34
aI84
aI36
aI64
aI12
aI68
aI86
aI20
aI58
aI77
aI42
aI43
aI40
aI51
aa(lp9
I81
aI16
aI98
aI50
aI48
aI89
aI96
aI61
aI52
aI42
aI17
aI8
aI46
aI29
aI10
aI94
aI22
aI77
aI73
aI30
aa(lp10
I11
aI94
aI47
aI89
aI28
aI14
aI75
aI20
aI84
aI21
aI55
aI96
aI39
aI59
aI30
aI78
aI85
aI35
aI68
aI24
aa(lp11
I78
aI97
aI48
aI65
aI23
aI93
aI83
aI2
aI62
aI18
aI26
aI1
aI6
aI52
aI85
aI67
aI87
aI53
aI64
aI3
aa(lp12
I49
aI26
aI56
aI89
aI40
aI44
aI38
aI52
aI98
aI1
aI24
aI41
aI3
aI21
aI8
aI39
aI95
aI46
aI81
aI73
aa(lp13
I2
aI59
aI64
aI11
aI8
aI52
aI38
aI55
aI48
aI39
aI81
aI58
aI60
aI4
aI88
aI14
aI70
aI33
aI75
aI19
aa(lp14
I77
aI33
aI81
aI29
aI7
aI50
aI25
aI59
aI32
aI58
aI23
aI19
aI71
aI83
aI11
aI87
aI24
aI96
aI36
aI72
aa(lp15
I90
aI6
aI29
aI41
aI62
aI60
aI39
aI50
aI89
aI34
aI7
aI70
aI78
aI66
aI24
aI84
aI15
aI21
aI74
aI2
aa(lp16
I88
aI76
aI78
aI61
aI97
aI71
aI66
aI15
aI72
aI31
aI80
aI29
aI60
aI86
aI89
aI39
aI74
aI56
aI91
aI73
aa(lp17
I78
aI30
aI58
aI21
aI68
aI50
aI84
aI38
aI0
aI44
aI67
aI66
aI9
aI12
aI26
aI91
aI3
aI62
aI80
aI46
aa(lp18
I10
aI61
aI24
aI41
aI0
aI29
aI75
aI65
aI9
aI35
aI67
aI54
aI20
aI60
aI62
aI91
aI16
aI93
aI97
aI31
aa(lp19
I11
aI47
aI40
aI98
aI66
aI28
aI48
aI61
aI93
aI13
aI37
aI16
aI34
aI73
aI84
aI62
aI2
aI45
aI68
aI39
aa(lp20
I1
aI69
aI28
aI68
aI10
aI16
aI60
aI85
aI87
aI75
aI58
aI65
aI48
aI11
aI19
aI0
aI39
aI5
aI37
aI26
aa(lp21
I23
aI8
aI80
aI33
aI6
aI78
aI68
aI52
aI25
aI17
aI54
aI71
aI49
aI41
aI94
aI44
aI53
aI62
aI85
aI14
aa(lp22
I88
aI54
aI45
aI51
aI90
aI40
aI83
aI13
aI33
aI89
aI79
aI50
aI52
aI5
aI7
aI59
aI11
aI37
aI84
aI23
aa(lp23
I34
aI26
aI10
aI22
aI64
aI49
aI15
aI88
aI60
aI84
aI58
aI78
aI9
aI73
aI83
aI40
aI48
aI96
aI39
aI28
aa(lp24
I68
aI38
aI15
aI2
aI93
aI83
aI1
aI41
aI6
aI66
aI75
aI33
aI30
aI25
aI94
aI32
aI63
aI4
aI0
aI48
aa(lp25
I87
aI46
aI45
aI80
aI24
aI23
aI28
aI62
aI7
aI22
aI40
aI42
aI50
aI73
aI98
aI16
aI88
aI25
aI96
aI33
aa(lp26
I34
aI66
aI60
aI40
aI57
aI63
aI77
aI16
aI73
aI24
aI11
aI0
aI61
aI83
aI7
aI38
aI67
aI21
aI93
aI75
aa(lp27
I42
aI38
aI5
aI19
aI45
aI87
aI77
aI89
aI68
aI69
aI18
aI33
aI91
aI29
aI34
aI98
aI76
aI46
aI44
aI92
aa(lp28
I41
aI36
aI75
aI8
aI11
aI18
aI88
aI98
aI42
aI64
aI56
aI90
aI40
aI49
aI14
aI82
aI23
aI44
aI76
aI57
aa(lp29
I80
aI43
aI25
aI72
aI47
aI68
aI31
aI76
aI1
aI24
aI22
aI75
aI60
aI65
aI16
aI40
aI36
aI59
aI57
aI53
aa(lp30
I5
aI1
aI19
aI70
aI6
aI17
aI76
aI4
aI37
aI35
aI24
aI80
aI65
aI91
aI90
aI43
aI94
aI44
aI27
aI56
aa(lp31
I85
aI42
aI4
aI35
aI92
aI80
aI8
aI32
aI62
aI74
aI20
aI49
aI47
aI93
aI94
aI86
aI82
aI17
aI28
aI60
aa(lp32
I44
aI87
aI0
aI25
aI8
aI50
aI74
aI97
aI26
aI35
aI59
aI22
aI5
aI17
aI18
aI53
aI72
aI77
aI68
aI32
aa(lp33
I86
aI39
aI38
aI55
aI5
aI54
aI19
aI13
aI41
aI42
aI80
aI71
aI89
aI60
aI52
aI15
aI36
aI7
aI57
aI23
aa(lp34
I30
aI94
aI37
aI78
aI70
aI29
aI92
aI71
aI89
aI96
aI19
aI68
aI62
aI49
aI83
aI84
aI6
aI72
aI82
aI81
aa(lp35
I95
aI53
aI91
aI20
aI81
aI14
aI43
aI38
aI12
aI35
aI74
aI63
aI31
aI97
aI41
aI18
aI5
aI48
aI16
aI29
aa(lp36
I50
aI98
aI74
aI76
aI73
aI53
aI21
aI88
aI62
aI46
aI71
aI64
aI54
aI91
aI37
aI90
aI94
aI81
aI12
aI86
aa(lp37
I72
aI26
aI4
aI30
aI68
aI92
aI74
aI63
aI35
aI24
aI40
aI9
aI71
aI55
aI83
aI6
aI88
aI5
aI70
aI75
aa(lp38
I15
aI68
aI17
aI81
aI31
aI35
aI49
aI93
aI22
aI65
aI63
aI62
aI14
aI97
aI85
aI87
aI8
aI67
aI16
aI73
aa(lp39
I29
aI31
aI21
aI38
aI57
aI12
aI97
aI74
aI72
aI14
aI26
aI59
aI18
aI89
aI81
aI62
aI15
aI24
aI55
aI93
aa(lp40
I9
aI98
aI45
aI21
aI31
aI57
aI46
aI79
aI22
aI44
aI33
aI84
aI16
aI74
aI38
aI28
aI47
aI65
aI34
aI52
aa(lp41
I92
aI31
aI4
aI21
aI23
aI98
aI10
aI32
aI71
aI17
aI8
aI60
aI20
aI44
aI1
aI77
aI29
aI43
aI6
aI56
aa(lp42
I50
aI14
aI37
aI65
aI68
aI3
aI57
aI53
aI52
aI45
aI13
aI59
aI44
aI4
aI98
aI18
aI15
aI60
aI12
aI74
aa(lp43
I87
aI90
aI64
aI0
aI94
aI97
aI54
aI27
aI63
aI37
aI93
aI2
aI22
aI35
aI52
aI86
aI82
aI24
aI43
aI33
aa(lp44
I43
aI6
aI88
aI18
aI97
aI51
aI81
aI8
aI19
aI20
aI1
aI54
aI31
aI65
aI85
aI50
aI83
aI47
aI46
aI32
aa(lp45
I30
aI14
aI48
aI27
aI19
aI9
aI20
aI24
aI26
aI25
aI15
aI98
aI22
aI6
aI58
aI3
aI57
aI97
aI72
aI59
aa(lp46
I60
aI37
aI39
aI16
aI23
aI30
aI58
aI42
aI88
aI7
aI13
aI3
aI52
aI27
aI41
aI55
aI79
aI76
aI68
aI65
aa(lp47
I90
aI11
aI23
aI96
aI7
aI33
aI30
aI67
aI76
aI52
aI6
aI87
aI10
aI70
aI61
aI31
aI51
aI0
aI14
aI53
aa(lp48
I98
aI94
aI14
aI65
aI66
aI58
aI35
aI10
aI0
aI38
aI15
aI25
aI34
aI16
aI97
aI3
aI50
aI84
aI20
aI83
aa(lp49
I95
aI89
aI47
aI0
aI4
aI18
aI84
aI9
aI60
aI94
aI86
aI82
aI22
aI30
aI7
aI25
aI75
aI93
aI41
aI52
aa(lp50
I48
aI28
aI9
aI83
aI69
aI5
aI10
aI75
aI36
aI58
aI27
aI24
aI18
aI54
aI45
aI46
aI29
aI71
aI68
aI26
aa(lp51
I98
aI91
aI21
aI49
aI30
aI56
aI71
aI15
aI24
aI13
aI20
aI96
aI69
aI32
aI19
aI73
aI48
aI84
aI5
aI86
aa(lp52
I29
aI17
aI80
aI60
aI41
aI95
aI88
aI97
aI58
aI20
aI12
aI53
aI35
aI51
aI32
aI25
aI33
aI82
aI92
aI10
aa(lp53
I65
aI80
aI57
aI78
aI33
aI34
aI62
aI84
aI64
aI75
aI42
aI32
aI89
aI47
aI74
aI50
aI20
aI82
aI30
aI54
aa(lp54
I1
aI23
aI8
aI20
aI85
aI78
aI30
aI18
aI42
aI55
aI75
aI34
aI97
aI7
aI43
aI4
aI27
aI0
aI76
aI60
aa(lp55
I36
aI62
aI76
aI63
aI44
aI22
aI94
aI41
aI84
aI97
aI89
aI10
aI6
aI65
aI38
aI9
aI53
aI95
aI4
aI37
aa(lp56
I65
aI48
aI1
aI71
aI14
aI77
aI85
aI3
aI87
aI76
aI94
aI12
aI68
aI19
aI2
aI25
aI61
aI98
aI37
aI86
aa(lp57
I37
aI4
aI35
aI58
aI14
aI82
aI88
aI42
aI33
aI70
aI56
aI63
aI75
aI23
aI43
aI91
aI17
aI1
aI0
aI60
aa(lp58
I43
aI73
aI54
aI15
aI85
aI0
aI81
aI78
aI57
aI52
aI58
aI48
aI40
aI22
aI21
aI27
aI60
aI32
aI42
aI31
aa(lp59
I56
aI91
aI2
aI26
aI69
aI63
aI32
aI90
aI81
aI76
aI12
aI11
aI7
aI94
aI44
aI31
aI93
aI1
aI55
aI9
aa(lp60
I72
aI57
aI73
aI45
aI41
aI18
aI82
aI70
aI4
aI51
aI50
aI59
aI75
aI60
aI36
aI7
aI27
aI39
aI76
aI61
aa(lp61
I87
aI88
aI35
aI11
aI15
aI31
aI8
aI86
aI3
aI80
aI67
aI40
aI63
aI28
aI72
aI93
aI57
aI70
aI68
aI53
aa(lp62
I34
aI6
aI31
aI98
aI30
aI91
aI35
aI80
aI25
aI68
aI50
aI18
aI70
aI7
aI43
aI22
aI90
aI74
aI72
aI92
aa(lp63
I33
aI3
aI15
aI84
aI2
aI82
aI76
aI17
aI86
aI13
aI28
aI79
aI58
aI41
aI40
aI9
aI45
aI43
aI98
aI37
aa(lp64
I74
aI42
aI46
aI84
aI87
aI68
aI2
aI43
aI13
aI28
aI24
aI33
aI50
aI93
aI47
aI9
aI64
aI82
aI79
aI30
aa(lp65
I90
aI25
aI74
aI96
aI97
aI79
aI64
aI94
aI15
aI45
aI21
aI0
aI86
aI37
aI22
aI85
aI82
aI58
aI42
aI57
aa(lp66
I62
aI63
aI47
aI3
aI65
aI86
aI35
aI64
aI31
aI77
aI48
aI24
aI61
aI21
aI44
aI91
aI8
aI50
aI49
aI67
aa(lp67
I59
aI97
aI85
aI17
aI89
aI98
aI54
aI6
aI82
aI83
aI56
aI60
aI26
aI5
aI32
aI13
aI29
aI11
aI27
aI66
aa(lp68
I81
aI52
aI29
aI82
aI72
aI45
aI74
aI4
aI65
aI22
aI14
aI71
aI36
aI80
aI76
aI32
aI66
aI42
aI51
aI20
aa(lp69
I76
aI94
aI58
aI70
aI42
aI30
aI6
aI1
aI91
aI80
aI48
aI37
aI90
aI71
aI54
aI66
aI82
aI68
aI38
aI43
aa(lp70
I98
aI27
aI77
aI2
aI95
aI24
aI70
aI37
aI56
aI12
aI53
aI3
aI68
aI44
aI67
aI48
aI57
aI25
aI22
aI39
aa(lp71
I35
aI51
aI39
aI82
aI11
aI83
aI13
aI61
aI30
aI20
aI56
aI46
aI98
aI48
aI52
aI50
aI44
aI77
aI71
aI1
aa(lp72
I83
aI46
aI82
aI70
aI69
aI72
aI80
aI4
aI39
aI42
aI85
aI63
aI1
aI68
aI2
aI54
aI96
aI79
aI53
aI5
aa(lp73
I46
aI14
aI32
aI39
aI33
aI68
aI12
aI81
aI62
aI9
aI35
aI58
aI6
aI84
aI20
aI34
aI59
aI24
aI61
aI23
aa(lp74
I12
aI66
aI72
aI51
aI47
aI75
aI90
aI46
aI10
aI95
aI93
aI30
aI61
aI83
aI94
aI74
aI13
aI0
aI79
aI11
aa(lp75
I86
aI82
aI6
aI3
aI64
aI63
aI4
aI67
aI56
aI78
aI76
aI1
aI79
aI2
aI31
aI43
aI15
aI84
aI32
aI34
aa(lp76
I55
aI8
aI0
aI23
aI51
aI66
aI18
aI52
aI70
aI32
aI69
aI2
aI33
aI64
aI53
aI11
aI5
aI86
aI17
aI65
aa(lp77
I85
aI75
aI7
aI11
aI73
aI65
aI48
aI50
aI47
aI6
aI30
aI53
aI10
aI40
aI34
aI72
aI44
aI13
aI60
aI33
aa(lp78
I61
aI45
aI15
aI84
aI86
aI33
aI55
aI7
aI81
aI89
aI12
aI4
aI71
aI88
aI24
aI18
aI56
aI25
aI29
aI47
aa(lp79
I41
aI26
aI31
aI35
aI82
aI73
aI91
aI51
aI57
aI10
aI22
aI64
aI32
aI94
aI34
aI42
aI92
aI66
aI0
aI44
aa(lp80
I42
aI86
aI26
aI8
aI14
aI25
aI53
aI35
aI64
aI57
aI51
aI95
aI98
aI72
aI68
aI21
aI79
aI70
aI0
aI74
aa(lp81
I57
aI2
aI77
aI83
aI12
aI81
aI13
aI8
aI46
aI51
aI71
aI69
aI31
aI97
aI34
aI94
aI11
aI27
aI54
aI45
aa(lp82
I78
aI75
aI51
aI14
aI23
aI25
aI5
aI6
aI97
aI92
aI39
aI76
aI67
aI33
aI9
aI86
aI48
aI32
aI93
aI26
aa(lp83
I91
aI51
aI79
aI74
aI89
aI29
aI77
aI44
aI3
aI68
aI20
aI47
aI10
aI59
aI9
aI32
aI43
aI63
aI28
aI38
aa(lp84
I35
aI81
aI95
aI42
aI1
aI68
aI40
aI97
aI48
aI83
aI51
aI9
aI19
aI21
aI79
aI84
aI3
aI69
aI78
aI34
aa(lp85
I43
aI0
aI14
aI87
aI89
aI80
aI83
aI12
aI4
aI33
aI17
aI91
aI49
aI62
aI36
aI79
aI98
aI76
aI70
aI51
aa(lp86
I98
aI77
aI62
aI30
aI4
aI29
aI40
aI49
aI18
aI11
aI20
aI35
aI55
aI67
aI88
aI83
aI41
aI82
aI87
aI61
aa(lp87
I15
aI89
aI48
aI13
aI26
aI37
aI18
aI66
aI44
aI92
aI55
aI83
aI82
aI16
aI71
aI11
aI53
aI91
aI51
aI35
aa(lp88
I75
aI39
aI98
aI8
aI5
aI71
aI91
aI49
aI54
aI41
aI69
aI33
aI61
aI17
aI88
aI40
aI95
aI14
aI31
aI56
aa(lp89
I76
aI35
aI88
aI18
aI33
aI74
aI90
aI71
aI21
aI98
aI78
aI94
aI72
aI59
aI14
aI93
aI28
aI97
aI29
aI64
aa(lp90
I67
aI58
aI90
aI82
aI36
aI28
aI61
aI77
aI59
aI27
aI19
aI83
aI37
aI16
aI25
aI79
aI15
aI40
aI63
aI86
aa(lp91
I78
aI40
aI53
aI84
aI74
aI20
aI44
aI46
aI30
aI81
aI27
aI90
aI11
aI93
aI70
aI91
aI16
aI75
aI62
aI60
aa(lp92
I92
aI43
aI70
aI52
aI71
aI67
aI87
aI46
aI58
aI94
aI56
aI1
aI28
aI63
aI40
aI47
aI69
aI80
aI55
aI66
aa(lp93
I13
aI19
aI66
aI74
aI55
aI97
aI4
aI31
aI15
aI14
aI56
aI29
aI84
aI12
aI8
aI92
aI10
aI50
aI75
aI83
aa(lp94
I37
aI72
aI96
aI69
aI81
aI64
aI70
aI25
aI6
aI71
aI34
aI65
aI44
aI73
aI36
aI24
aI88
aI9
aI21
aI7
aa(lp95
I15
aI6
aI41
aI16
aI68
aI50
aI49
aI65
aI31
aI62
aI28
aI75
aI80
aI37
aI47
aI74
aI55
aI32
aI86
aI85
aa(lp96
I69
aI27
aI7
aI37
aI10
aI23
aI75
aI0
aI88
aI39
aI96
aI67
aI98
aI60
aI71
aI28
aI2
aI35
aI65
aI49
aa(lp97
I32
aI38
aI30
aI40
aI61
aI11
aI35
aI13
aI93
aI92
aI87
aI55
aI80
aI17
aI29
aI81
aI26
aI64
aI15
aI84
aa(lp98
I41
aI98
aI69
aI43
aI52
aI4
aI61
aI36
aI24
aI73
aI31
aI80
aI0
aI7
aI77
aI47
aI82
aI62
aI17
aI56
aa(lp99
I93
aI29
aI87
aI40
aI1
aI59
aI54
aI38
aI60
aI98
aI5
aI74
aI9
aI47
aI7
aI79
aI66
aI26
aI45
aI0
aa(lp100
I74
aI71
aI51
aI66
aI26
aI85
aI1
aI69
aI23
aI44
aI53
aI21
aI32
aI41
aI98
aI60
aI15
aI93
aI61
aI36
aa(lp101
I17
aI42
aI45
aI5
aI9
aI50
aI2
aI86
aI22
aI35
aI84
aI74
aI6
aI1
aI28
aI39
aI33
aI77
aI80
aI37
aa(lp102
I87
aI47
aI86
aI77
aI16
aI75
aI92
aI80
aI3
aI0
aI98
aI37
aI31
aI46
aI73
aI13
aI84
aI64
aI4
aI39
aa(lp103
I69
aI63
aI88
aI51
aI34
aI86
aI67
aI58
aI35
aI56
aI5
aI14
aI71
aI77
aI43
aI7
aI45
aI29
aI11
aI23
aa(lp104
I25
aI8
aI12
aI15
aI44
aI82
aI57
aI84
aI17
aI48
aI66
aI30
aI23
aI45
aI43
aI33
aI60
aI14
aI46
aI94
aa(lp105
I57
aI25
aI88
aI43
aI31
aI90
aI58
aI42
aI2
aI21
aI63
aI12
aI83
aI32
aI35
aI91
aI22
aI59
aI13
aI77
aa(lp106
I42
aI27
aI3
aI24
aI38
aI53
aI36
aI90
aI25
aI4
aI14
aI68
aI78
aI2
aI98
aI63
aI48
aI40
aI22
aI57
aa(lp107
I13
aI27
aI34
aI66
aI55
aI94
aI68
aI70
aI78
aI60
aI18
aI61
aI33
aI72
aI16
aI24
aI81
aI32
aI28
aI64
aa(lp108
I59
aI47
aI83
aI90
aI62
aI23
aI28
aI18
aI15
aI53
aI41
aI96
aI33
aI21
aI10
aI32
aI87
aI22
aI92
aI74
aa(lp109
I37
aI28
aI70
aI86
aI65
aI8
aI20
aI83
aI69
aI72
aI45
aI34
aI36
aI44
aI60
aI66
aI53
aI27
aI50
aI11
aa(lp110
I91
aI4
aI33
aI84
aI86
aI82
aI28
aI5
aI16
aI36
aI2
aI14
aI49
aI15
aI37
aI34
aI38
aI81
aI10
aI24
aa(lp111
I80
aI69
aI6
aI32
aI72
aI84
aI87
aI44
aI31
aI35
aI15
aI14
aI90
aI68
aI0
aI74
aI48
aI4
aI93
aI62
aa(lp112
I36
aI65
aI84
aI53
aI91
aI48
aI0
aI26
aI23
aI70
aI33
aI24
aI13
aI47
aI11
aI49
aI5
aI19
aI64
aI8
aa(lp113
I47
aI54
aI83
aI37
aI65
aI73
aI64
aI14
aI46
aI92
aI45
aI74
aI43
aI4
aI61
aI29
aI91
aI41
aI86
aI89
aa(lp114
I54
aI20
aI71
aI30
aI50
aI19
aI40
aI55
aI84
aI7
aI10
aI22
aI57
aI83
aI44
aI76
aI37
aI14
aI74
aI86
aa(lp115
I57
aI3
aI70
aI13
aI65
aI18
aI53
aI1
aI46
aI88
aI31
aI7
aI10
aI60
aI38
aI15
aI87
aI12
aI59
aI34
aa(lp116
I14
aI73
aI8
aI94
aI61
aI49
aI81
aI68
aI3
aI77
aI17
aI6
aI0
aI88
aI72
aI71
aI19
aI28
aI52
aI51
aa(lp117
I30
aI31
aI27
aI43
aI53
aI71
aI72
aI75
aI57
aI55
aI45
aI21
aI24
aI47
aI61
aI17
aI26
aI42
aI66
aI11
aa(lp118
I13
aI11
aI8
aI93
aI42
aI50
aI92
aI71
aI90
aI5
aI61
aI23
aI45
aI22
aI41
aI46
aI68
aI49
aI64
aI85
aa(lp119
I22
aI38
aI23
aI81
aI8
aI80
aI92
aI14
aI72
aI15
aI64
aI41
aI68
aI43
aI71
aI94
aI58
aI13
aI91
aI48
aa(lp120
I13
aI37
aI0
aI3
aI58
aI9
aI74
aI48
aI81
aI59
aI42
aI12
aI90
aI34
aI29
aI47
aI80
aI21
aI15
aI6
aa(lp121
I84
aI97
aI11
aI21
aI10
aI51
aI88
aI39
aI36
aI37
aI80
aI25
aI24
aI58
aI29
aI49
aI2
aI76
aI73
aI48
aa(lp122
I90
aI43
aI69
aI59
aI75
aI25
aI47
aI60
aI49
aI46
aI87
aI50
aI80
aI33
aI13
aI68
aI41
aI73
aI39
aI52
aa(lp123
I25
aI19
aI71
aI22
aI24
aI86
aI34
aI3
aI92
aI32
aI38
aI94
aI65
aI82
aI36
aI87
aI81
aI97
aI39
aI51
aa(lp124
I14
aI8
aI16
aI40
aI76
aI84
aI24
aI64
aI50
aI82
aI3
aI69
aI28
aI11
aI72
aI59
aI10
aI39
aI78
aI30
aa(lp125
I9
aI36
aI83
aI16
aI97
aI56
aI62
aI59
aI48
aI38
aI29
aI35
aI28
aI2
aI90
aI88
aI50
aI58
aI14
aI8
aa(lp126
I92
aI86
aI15
aI69
aI44
aI35
aI47
aI32
aI13
aI29
aI14
aI2
aI50
aI97
aI56
aI46
aI28
aI19
aI72
aI73
aa(lp127
I23
aI82
aI59
aI87
aI34
aI76
aI81
aI86
aI30
aI51
aI38
aI56
aI10
aI70
aI35
aI7
aI57
aI58
aI89
aI11
aa(lp128
I9
aI85
aI93
aI33
aI54
aI59
aI57
aI38
aI1
aI72
aI83
aI5
aI98
aI56
aI61
aI95
aI6
aI47
aI27
aI80
aa(lp129
I17
aI51
aI9
aI80
aI57
aI86
aI58
aI32
aI71
aI37
aI41
aI72
aI29
aI89
aI4
aI73
aI93
aI15
aI66
aI90
aa(lp130
I43
aI29
aI21
aI58
aI13
aI37
aI42
aI10
aI39
aI33
aI56
aI46
aI70
aI77
aI26
aI7
aI14
aI76
aI98
aI44
aa(lp131
I16
aI77
aI19
aI74
aI38
aI30
aI68
aI75
aI85
aI27
aI58
aI40
aI45
aI51
aI79
aI13
aI56
aI41
aI62
aI96
aa(lp132
I7
aI5
aI64
aI0
aI62
aI96
aI12
aI29
aI16
aI34
aI89
aI78
aI76
aI88
aI46
aI50
aI66
aI26
aI32
aI45
aa(lp133
I79
aI41
aI26
aI86
aI78
aI89
aI95
aI64
aI21
aI63
aI45
aI44
aI97
aI1
aI16
aI62
aI58
aI57
aI33
aI29
aa(lp134
I98
aI88
aI31
aI23
aI96
aI64
aI22
aI39
aI85
aI2
aI36
aI55
aI4
aI72
aI25
aI26
aI77
aI43
aI46
aI62
aa(lp135
I73
aI54
aI17
aI4
aI97
aI61
aI0
aI75
aI65
aI90
aI77
aI32
aI95
aI14
aI8
aI86
aI83
aI6
aI11
aI59
aa(lp136
I9
aI89
aI64
aI72
aI46
aI26
aI37
aI66
aI40
aI5
aI87
aI45
aI67
aI36
aI91
aI92
aI30
aI19
aI48
aI13
aa(lp137
I29
aI37
aI76
aI22
aI85
aI2
aI43
aI95
aI51
aI17
aI65
aI47
aI52
aI78
aI72
aI94
aI70
aI11
aI40
aI36
aa(lp138
I70
aI9
aI44
aI90
aI73
aI10
aI8
aI3
aI84
aI74
aI2
aI13
aI72
aI43
aI41
aI64
aI97
aI96
aI75
aI68
aa(lp139
I79
aI97
aI34
aI88
aI45
aI81
aI67
aI16
aI11
aI66
aI52
aI30
aI41
aI18
aI40
aI26
aI13
aI56
aI77
aI93
aa(lp140
I54
aI45
aI26
aI76
aI28
aI25
aI49
aI66
aI44
aI63
aI19
aI89
aI46
aI47
aI64
aI69
aI12
aI67
aI57
aI53
aa(lp141
I66
aI6
aI23
aI28
aI20
aI67
aI19
aI21
aI34
aI68
aI18
aI59
aI37
aI57
aI39
aI52
aI87
aI44
aI35
aI73
aa(lp142
I76
aI26
aI27
aI29
aI42
aI95
aI34
aI7
aI90
aI33
aI84
aI0
aI70
aI72
aI97
aI89
aI4
aI21
aI73
aI14
aa(lp143
I19
aI92
aI67
aI1
aI69
aI26
aI21
aI89
aI27
aI66
aI13
aI96
aI64
aI63
aI4
aI15
aI77
aI56
aI57
aI52
aa(lp144
I63
aI46
aI34
aI57
aI77
aI52
aI41
aI12
aI53
aI43
aI4
aI56
aI31
aI17
aI9
aI30
aI24
aI82
aI66
aI78
aa(lp145
I36
aI25
aI35
aI87
aI21
aI39
aI5
aI44
aI66
aI50
aI37
aI43
aI65
aI80
aI6
aI62
aI19
aI15
aI20
aI81
aa(lp146
I32
aI44
aI49
aI1
aI92
aI10
aI21
aI76
aI78
aI60
aI24
aI93
aI73
aI15
aI42
aI71
aI72
aI6
aI16
aI12
aa(lp147
I5
aI59
aI80
aI83
aI48
aI40
aI93
aI18
aI43
aI53
aI70
aI56
aI6
aI72
aI94
aI74
aI1
aI50
aI33
aI57
aa(lp148
I3
aI74
aI14
aI30
aI75
aI77
aI5
aI22
aI62
aI18
aI8
aI44
aI84
aI88
aI95
aI65
aI59
aI38
aI17
aI13
aa(lp149
I64
aI22
aI0
aI21
aI73
aI56
aI28
aI87
aI37
aI43
aI60
aI84
aI9
aI79
aI20
aI77
aI89
aI3
aI66
aI61
aa(lp150
I60
aI96
aI58
aI44
aI51
aI91
aI68
aI78
aI21
aI20
aI86
aI57
aI56
aI84
aI35
aI65
aI87
aI27
aI29
aI11
aa(lp151
I90
aI20
aI32
aI45
aI76
aI59
aI19
aI63
aI72
aI30
aI95
aI10
aI42
aI38
aI43
aI31
aI60
aI39
aI6
aI13
aa(lp152
I81
aI31
aI64
aI33
aI54
aI13
aI89
aI4
aI72
aI85
aI30
aI90
aI70
aI48
aI27
aI62
aI86
aI40
aI60
aI8
aa(lp153
I60
aI23
aI19
aI59
aI38
aI67
aI16
aI32
aI33
aI76
aI24
aI3
aI20
aI0
aI15
aI30
aI43
aI62
aI90
aI8
aa(lp154
I72
aI18
aI27
aI31
aI62
aI93
aI90
aI81
aI7
aI76
aI94
aI74
aI92
aI10
aI20
aI21
aI25
aI57
aI66
aI91
aa(lp155
I92
aI7
aI4
aI48
aI42
aI2
aI76
aI1
aI50
aI61
aI9
aI87
aI86
aI16
aI19
aI8
aI17
aI49
aI66
aI98
aa(lp156
I98
aI53
aI46
aI40
aI38
aI23
aI63
aI32
aI25
aI62
aI55
aI78
aI68
aI80
aI93
aI85
aI37
aI66
aI72
aI90
aa(lp157
I35
aI80
aI26
aI41
aI71
aI24
aI64
aI93
aI59
aI62
aI92
aI42
aI23
aI25
aI38
aI61
aI94
aI29
aI51
aI6
aa(lp158
I57
aI18
aI58
aI97
aI7
aI32
aI26
aI51
aI75
aI54
aI60
aI91
aI61
aI20
aI48
aI86
aI49
aI6
aI16
aI53
aa(lp159
I58
aI40
aI80
aI28
aI11
aI42
aI6
aI93
aI59
aI41
aI57
aI70
aI46
aI75
aI68
aI56
aI10
aI39
aI83
aI29
aa(lp160
I5
aI87
aI21
aI88
aI18
aI94
aI73
aI43
aI72
aI69
aI28
aI47
aI77
aI2
aI45
aI70
aI10
aI15
aI93
aI90
aa(lp161
I69
aI35
aI60
aI20
aI90
aI72
aI57
aI71
aI14
aI77
aI39
aI2
aI1
aI16
aI86
aI31
aI45
aI5
aI19
aI81
aa(lp162
I15
aI81
aI83
aI69
aI33
aI97
aI42
aI9
aI80
aI60
aI55
aI90
aI43
aI67
aI44
aI95
aI53
aI73
aI71
aI56
aa(lp163
I82
aI87
aI34
aI58
aI96
aI80
aI10
aI1
aI51
aI5
aI16
aI20
aI48
aI69
aI76
aI14
aI40
aI31
aI60
aI91
aa(lp164
I14
aI59
aI49
aI28
aI44
aI42
aI98
aI34
aI8
aI50
aI93
aI22
aI27
aI85
aI68
aI96
aI36
aI65
aI47
aI88
aa(lp165
I41
aI35
aI78
aI94
aI37
aI19
aI93
aI89
aI58
aI2
aI18
aI20
aI27
aI31
aI28
aI92
aI13
aI10
aI74
aI11
aa(lp166
I19
aI33
aI14
aI42
aI47
aI97
aI2
aI64
aI73
aI35
aI51
aI3
aI62
aI15
aI89
aI59
aI23
aI16
aI69
aI17
aa(lp167
I50
aI42
aI43
aI31
aI39
aI57
aI55
aI51
aI81
aI17
aI79
aI80
aI84
aI19
aI27
aI83
aI10
aI77
aI32
aI76
aa(lp168
I84
aI15
aI42
aI55
aI98
aI66
aI93
aI51
aI23
aI6
aI74
aI12
aI24
aI18
aI36
aI72
aI61
aI87
aI48
aI31
aa(lp169
I20
aI78
aI19
aI28
aI94
aI87
aI60
aI40
aI33
aI80
aI16
aI90
aI18
aI55
aI74
aI47
aI9
aI14
aI10
aI66
aa(lp170
I3
aI95
aI36
aI11
aI42
aI10
aI87
aI14
aI55
aI8
aI80
aI60
aI89
aI28
aI31
aI82
aI12
aI50
aI63
aI73
aa(lp171
I17
aI85
aI97
aI0
aI5
aI6
aI53
aI80
aI24
aI75
aI65
aI9
aI61
aI91
aI34
aI25
aI49
aI36
aI35
aI84
aa(lp172
I83
aI0
aI19
aI94
aI38
aI36
aI95
aI64
aI51
aI67
aI26
aI69
aI53
aI43
aI4
aI98
aI50
aI65
aI7
aI79
aa(lp173
I2
aI79
aI1
aI27
aI19
aI81
aI93
aI20
aI77
aI23
aI78
aI35
aI94
aI88
aI69
aI51
aI49
aI62
aI29
aI48
aa(lp174
I53
aI57
aI84
aI44
aI42
aI79
aI45
aI77
aI93
aI17
aI33
aI85
aI24
aI38
aI80
aI29
aI36
aI40
aI46
aI31
aa(lp175
I91
aI67
aI28
aI27
aI5
aI37
aI50
aI17
aI80
aI8
aI84
aI7
aI22
aI54
aI59
aI77
aI90
aI26
aI94
aI32
aa(lp176
I57
aI71
aI22
aI33
aI31
aI97
aI28
aI45
aI23
aI47
aI42
aI79
aI89
aI70
aI67
aI43
aI15
aI62
aI61
aI2
aa(lp177
I36
aI85
aI6
aI93
aI95
aI19
aI14
aI31
aI91
aI52
aI47
aI66
aI79
aI34
aI40
aI2
aI94
aI27
aI49
aI45
aa(lp178
I22
aI39
aI91
aI16
aI66
aI82
aI54
aI9
aI79
aI27
aI8
aI29
aI7
aI0
aI61
aI52
aI50
aI94
aI15
aI30
aa(lp179
I27
aI57
aI63
aI89
aI18
aI35
aI91
aI45
aI79
aI49
aI80
aI76
aI0
aI1
aI51
aI67
aI34
aI59
aI33
aI95
aa(lp180
I70
aI85
aI42
aI92
aI30
aI10
aI5
aI88
aI83
aI54
aI91
aI23
aI79
aI87
aI50
aI96
aI95
aI4
aI34
aI61
aa(lp181
I34
aI72
aI2
aI63
aI46
aI83
aI80
aI55
aI65
aI16
aI56
aI6
aI10
aI82
aI15
aI85
aI17
aI12
aI94
aI14
aa(lp182
I39
aI0
aI56
aI98
aI29
aI13
aI36
aI55
aI67
aI69
aI19
aI64
aI95
aI12
aI82
aI96
aI25
aI45
aI41
aI66
aa(lp183
I17
aI67
aI96
aI86
aI60
aI23
aI47
aI76
aI78
aI64
aI32
aI57
aI26
aI69
aI43
aI80
aI63
aI27
aI66
aI18
aa(lp184
I23
aI93
aI74
aI79
aI91
aI85
aI46
aI33
aI53
aI54
aI18
aI65
aI55
aI2
aI89
aI34
aI80
aI7
aI94
aI35
aa(lp185
I43
aI38
aI54
aI65
aI15
aI2
aI87
aI61
aI35
aI63
aI86
aI92
aI22
aI60
aI41
aI59
aI53
aI45
aI36
aI1
aa(lp186
I19
aI36
aI91
aI13
aI12
aI98
aI83
aI67
aI95
aI7
aI79
aI10
aI68
aI86
aI16
aI74
aI82
aI11
aI35
aI57
aa(lp187
I45
aI44
aI59
aI79
aI90
aI9
aI5
aI73
aI83
aI61
aI40
aI56
aI30
aI65
aI17
aI22
aI33
aI43
aI60
aI24
aa(lp188
I26
aI81
aI97
aI76
aI14
aI96
aI9
aI5
aI27
aI29
aI56
aI61
aI66
aI35
aI1
aI30
aI20
aI74
aI24
aI80
aa(lp189
I33
aI5
aI79
aI40
aI25
aI75
aI89
aI13
aI59
aI64
aI85
aI84
aI78
aI37
aI46
aI73
aI28
aI6
aI86
aI43
aa(lp190
I0
aI11
aI72
aI33
aI1
aI24
aI42
aI3
aI52
aI28
aI94
aI71
aI59
aI41
aI22
aI98
aI79
aI62
aI40
aI88
aa(lp191
I14
aI13
aI5
aI76
aI32
aI10
aI38
aI50
aI84
aI48
aI2
aI87
aI37
aI54
aI56
aI47
aI19
aI52
aI90
aI41
aa(lp192
I36
aI11
aI18
aI15
aI27
aI82
aI61
aI30
aI44
aI38
aI7
aI5
aI72
aI67
aI92
aI52
aI68
aI31
aI32
aI56
aa(lp193
I57
aI33
aI78
aI61
aI28
aI46
aI71
aI92
aI80
aI95
aI88
aI66
aI50
aI14
aI0
aI87
aI21
aI40
aI30
aI55
aa(lp194
I1
aI11
aI3
aI19
aI45
aI68
aI55
aI79
aI4
aI70
aI77
aI32
aI0
aI13
aI65
aI29
aI8
aI2
aI48
aI47
aa(lp195
I23
aI7
aI90
aI63
aI39
aI83
aI29
aI78
aI38
aI77
aI80
aI17
aI45
aI58
aI34
aI8
aI41
aI70
aI91
aI1
aa(lp196
I94
aI65
aI81
aI59
aI42
aI16
aI32
aI60
aI77
aI90
aI71
aI39
aI25
aI26
aI95
aI17
aI74
aI2
aI33
aI63
aa(lp197
I37
aI75
aI33
aI85
aI49
aI74
aI93
aI5
aI42
aI36
aI55
aI57
aI39
aI8
aI20
aI3
aI52
aI29
aI43
aI88
aa(lp198
I51
aI37
aI23
aI12
aI72
aI86
aI35
aI32
aI59
aI79
aI5
aI40
aI83
aI4
aI52
aI92
aI66
aI97
aI22
aI9
aa(lp199
I27
aI83
aI53
aI36
aI89
aI32
aI8
aI54
aI18
aI20
aI79
aI11
aI81
aI45
aI67
aI22
aI44
aI92
aI64
aI91
aa(lp200
I74
aI82
aI39
aI23
aI55
aI80
aI78
aI53
aI51
aI71
aI48
aI0
aI60
aI63
aI90
aI34
aI84
aI15
aI43
aI54
aa(lp201
I41
aI70
aI59
aI60
aI88
aI56
aI50
aI43
aI35
aI76
aI52
aI89
aI18
aI78
aI46
aI58
aI39
aI1
aI67
aI40
aa(lp202
I78
aI73
aI91
aI50
aI47
aI71
aI38
aI22
aI81
aI19
aI15
aI0
aI4
aI44
aI27
aI54
aI75
aI82
aI63
aI23
aa(lp203
I41
aI17
aI68
aI53
aI89
aI23
aI31
aI7
aI69
aI16
aI97
aI61
aI72
aI79
aI84
aI38
aI44
aI21
aI28
aI48
aa(lp204
I91
aI69
aI77
aI30
aI56
aI54
aI60
aI59
aI80
aI10
aI64
aI40
aI32
aI34
aI25
aI84
aI79
aI41
aI61
aI15
aa(lp205
I90
aI12
aI94
aI87
aI17
aI61
aI30
aI20
aI2
aI37
aI16
aI9
aI60
aI40
aI64
aI48
aI4
aI36
aI67
aI79
aa(lp206
I51
aI44
aI50
aI86
aI1
aI53
aI97
aI2
aI96
aI78
aI98
aI21
aI15
aI80
aI81
aI40
aI89
aI72
aI42
aI5
aa(lp207
I14
aI55
aI84
aI25
aI4
aI29
aI88
aI79
aI50
aI69
aI61
aI8
aI32
aI56
aI83
aI5
aI2
aI76
aI22
aI34
aa(lp208
I78
aI39
aI20
aI34
aI35
aI81
aI27
aI30
aI52
aI44
aI32
aI7
aI65
aI67
aI66
aI58
aI28
aI45
aI48
aI29
aa(lp209
I68
aI36
aI29
aI40
aI59
aI66
aI13
aI82
aI43
aI97
aI14
aI58
aI12
aI7
aI56
aI28
aI64
aI31
aI49
aI24
aa(lp210
I82
aI11
aI95
aI12
aI4
aI44
aI36
aI85
aI64
aI49
aI90
aI61
aI14
aI65
aI3
aI59
aI39
aI2
aI24
aI25
aa(lp211
I36
aI11
aI65
aI7
aI89
aI87
aI5
aI13
aI20
aI85
aI47
aI64
aI0
aI40
aI48
aI59
aI83
aI96
aI52
aI57
aa(lp212
I75
aI45
aI10
aI47
aI1
aI37
aI90
aI2
aI76
aI82
aI96
aI31
aI26
aI60
aI11
aI62
aI16
aI13
aI63
aI93
aa(lp213
I86
aI13
aI40
aI49
aI89
aI47
aI54
aI85
aI64
aI39
aI79
aI42
aI16
aI62
aI30
aI5
aI70
aI80
aI67
aI78
aa(lp214
I98
aI48
aI3
aI23
aI57
aI47
aI25
aI44
aI90
aI79
aI85
aI17
aI18
aI58
aI70
aI22
aI49
aI29
aI39
aI41
aa(lp215
I84
aI73
aI90
aI81
aI0
aI11
aI18
aI71
aI75
aI27
aI17
aI19
aI57
aI94
aI20
aI6
aI28
aI43
aI78
aI70
aa(lp216
I41
aI94
aI47
aI16
aI6
aI63
aI59
aI4
aI65
aI9
aI25
aI49
aI50
aI14
aI74
aI18
aI34
aI76
aI61
aI40
aa(lp217
I64
aI81
aI47
aI62
aI88
aI56
aI35
aI79
aI6
aI12
aI23
aI50
aI9
aI77
aI33
aI38
aI92
aI78
aI73
aI42
aa(lp218
I33
aI2
aI66
aI46
aI72
aI1
aI18
aI58
aI35
aI60
aI63
aI8
aI48
aI85
aI29
aI0
aI62
aI74
aI92
aI68
aa(lp219
I96
aI98
aI13
aI88
aI79
aI35
aI78
aI42
aI65
aI26
aI43
aI40
aI32
aI36
aI56
aI49
aI50
aI94
aI74
aI22
aa(lp220
I84
aI92
aI25
aI76
aI0
aI62
aI23
aI3
aI95
aI91
aI96
aI13
aI31
aI48
aI69
aI71
aI36
aI82
aI5
aI56
aa(lp221
I2
aI78
aI77
aI85
aI83
aI71
aI17
aI47
aI62
aI36
aI37
aI82
aI4
aI89
aI3
aI84
aI97
aI76
aI54
aI23
aa(lp222
I37
aI33
aI24
aI38
aI3
aI7
aI90
aI88
aI9
aI83
aI40
aI14
aI91
aI29
aI0
aI64
aI27
aI2
aI65
aI1
aa(lp223
I37
aI28
aI55
aI11
aI32
aI44
aI97
aI71
aI7
aI96
aI42
aI12
aI20
aI6
aI26
aI16
aI95
aI9
aI40
aI57
aa(lp224
I85
aI0
aI59
aI55
aI38
aI56
aI79
aI58
aI73
aI5
aI25
aI66
aI19
aI24
aI35
aI68
aI83
aI37
aI86
aI78
aa(lp225
I16
aI19
aI80
aI10
aI44
aI49
aI61
aI47
aI64
aI82
aI37
aI85
aI71
aI74
aI68
aI78
aI36
aI17
aI11
aI51
aa(lp226
I76
aI46
aI85
aI71
aI20
aI98
aI41
aI2
aI55
aI39
aI60
aI95
aI96
aI47
aI74
aI17
aI69
aI88
aI77
aI54
aa(lp227
I90
aI6
aI46
aI7
aI19
aI74
aI14
aI38
aI76
aI93
aI49
aI1
aI31
aI25
aI77
aI75
aI60
aI35
aI51
aI81
aa(lp228
I53
aI88
aI47
aI29
aI84
aI55
aI67
aI48
aI34
aI22
aI90
aI40
aI25
aI11
aI50
aI7
aI60
aI33
aI52
aI44
aa(lp229
I52
aI27
aI64
aI62
aI5
aI59
aI65
aI58
aI17
aI76
aI44
aI67
aI63
aI45
aI22
aI66
aI60
aI93
aI46
aI98
aa(lp230
I78
aI37
aI67
aI88
aI81
aI47
aI93
aI30
aI94
aI54
aI58
aI63
aI27
aI66
aI79
aI23
aI18
aI21
aI46
aI51
aa(lp231
I64
aI0
aI63
aI94
aI14
aI95
aI58
aI55
aI72
aI91
aI93
aI11
aI59
aI87
aI50
aI40
aI6
aI30
aI46
aI15
aa(lp232
I67
aI17
aI50
aI96
aI7
aI2
aI46
aI52
aI42
aI59
aI89
aI18
aI65
aI6
aI85
aI13
aI53
aI28
aI83
aI11
aa(lp233
I73
aI57
aI7
aI87
aI6
aI18
aI86
aI45
aI98
aI17
aI15
aI61
aI31
aI12
aI81
aI92
aI65
aI44
aI85
aI3
aa(lp234
I6
aI73
aI29
aI83
aI20
aI62
aI38
aI17
aI28
aI68
aI58
aI3
aI64
aI88
aI59
aI71
aI78
aI48
aI43
aI44
aa(lp235
I66
aI83
aI42
aI3
aI18
aI31
aI6
aI92
aI74
aI33
aI85
aI27
aI60
aI77
aI59
aI8
aI28
aI12
aI98
aI76
aa(lp236
I70
aI46
aI66
aI57
aI56
aI27
aI63
aI54
aI47
aI95
aI36
aI3
aI59
aI64
aI67
aI4
aI87
aI91
aI96
aI25
aa(lp237
I16
aI59
aI57
aI89
aI61
aI23
aI88
aI78
aI40
aI7
aI65
aI60
aI92
aI51
aI41
aI33
aI10
aI32
aI52
aI53
aa(lp238
I77
aI34
aI29
aI40
aI72
aI11
aI56
aI73
aI49
aI30
aI57
aI69
aI76
aI68
aI16
aI95
aI62
aI93
aI15
aI75
aa(lp239
I2
aI9
aI59
aI29
aI1
aI35
aI57
aI69
aI27
aI8
aI81
aI95
aI0
aI28
aI7
aI40
aI84
aI23
aI79
aI39
aa(lp240
I68
aI56
aI14
aI20
aI93
aI34
aI81
aI75
aI24
aI52
aI65
aI77
aI17
aI57
aI91
aI64
aI82
aI95
aI67
aI43
aa(lp241
I0
aI6
aI12
aI32
aI46
aI48
aI9
aI7
aI69
aI90
aI21
aI18
aI91
aI72
aI42
aI40
aI79
aI47
aI78
aI38
aa(lp242
I75
aI7
aI66
aI3
aI1
aI36
aI77
aI39
aI47
aI63
aI27
aI14
aI82
aI43
aI87
aI2
aI78
aI93
aI81
aI48
aa(lp243
I31
aI27
aI88
aI79
aI58
aI64
aI0
aI5
aI73
aI4
aI48
aI90
aI80
aI78
aI61
aI66
aI57
aI38
aI44
aI65
aa(lp244
I13
aI43
aI71
aI30
aI80
aI7
aI92
aI75
aI11
aI90
aI42
aI23
aI6
aI50
aI39
aI98
aI58
aI3
aI17
aI97
aa(lp245
I13
aI25
aI33
aI93
aI91
aI52
aI22
aI95
aI1
aI73
aI53
aI38
aI55
aI24
aI41
aI45
aI46
aI65
aI40
aI29
aa(lp246
I17
aI22
aI24
aI83
aI28
aI61
aI37
aI64
aI36
aI55
aI0
aI97
aI74
aI19
aI39
aI25
aI90
aI77
aI40
aI33
aa(lp247
I60
aI43
aI23
aI53
aI2
aI73
aI15
aI14
aI41
aI69
aI75
aI76
aI34
aI26
aI55
aI66
aI22
aI32
aI33
aI8
aa(lp248
I60
aI56
aI29
aI17
aI59
aI34
aI62
aI8
aI30
aI79
aI47
aI97
aI21
aI93
aI37
aI35
aI58
aI90
aI19
aI88
aa(lp249
I2
aI78
aI44
aI36
aI61
aI14
aI77
aI38
aI0
aI26
aI89
aI59
aI73
aI20
aI51
aI39
aI1
aI49
aI31
aI62
aa(lp250
I90
aI19
aI58
aI6
aI28
aI49
aI53
aI24
aI42
aI48
aI38
aI59
aI15
aI76
aI66
aI1
aI54
aI2
aI41
aI30
aa(lp251
I33
aI25
aI75
aI89
aI70
aI13
aI36
aI57
aI80
aI69
aI93
aI77
aI34
aI18
aI16
aI81
aI24
aI26
aI51
aI92
aa(lp252
I63
aI46
aI56
aI9
aI42
aI66
aI1
aI92
aI41
aI23
aI33
aI74
aI49
aI19
aI51
aI78
aI32
aI72
aI89
aI24
aa(lp253
I52
aI9
aI54
aI60
aI82
aI13
aI91
aI96
aI35
aI53
aI40
aI27
aI74
aI43
aI89
aI50
aI1
aI75
aI51
aI15
aa(lp254
I31
aI22
aI54
aI71
aI91
aI20
aI5
aI49
aI41
aI10
aI96
aI38
aI76
aI28
aI2
aI60
aI68
aI46
aI64
aI52
aa(lp255
I6
aI0
aI45
aI53
aI8
aI4
aI11
aI20
aI49
aI36
aI54
aI73
aI90
aI32
aI29
aI25
aI84
aI7
aI59
aI19
aa(lp256
I91
aI27
aI13
aI74
aI43
aI45
aI96
aI57
aI5
aI15
aI77
aI14
aI67
aI18
aI0
aI63
aI61
aI87
aI25
aI30
aa(lp257
I38
aI30
aI82
aI1
aI45
aI5
aI16
aI12
aI41
aI7
aI80
aI22
aI70
aI11
aI31
aI58
aI76
aI29
aI54
aI73
aa(lp258
I58
aI52
aI5
aI20
aI0
aI81
aI77
aI69
aI45
aI48
aI56
aI43
aI95
aI39
aI37
aI74
aI30
aI13
aI21
aI7
aa(lp259
I13
aI14
aI86
aI55
aI67
aI25
aI78
aI69
aI38
aI80
aI17
aI75
aI9
aI21
aI98
aI87
aI81
aI46
aI61
aI18
aa(lp260
I85
aI11
aI93
aI59
aI51
aI89
aI4
aI45
aI52
aI21
aI48
aI41
aI37
aI28
aI70
aI83
aI80
aI68
aI7
aI94
aa(lp261
I79
aI53
aI71
aI92
aI87
aI11
aI10
aI32
aI19
aI88
aI36
aI66
aI54
aI8
aI82
aI62
aI59
aI14
aI81
aI0
aa(lp262
I70
aI50
aI24
aI27
aI8
aI76
aI34
aI94
aI46
aI28
aI68
aI42
aI58
aI66
aI89
aI98
aI55
aI15
aI4
aI86
aa(lp263
I30
aI20
aI32
aI8
aI22
aI91
aI41
aI94
aI81
aI78
aI98
aI12
aI42
aI35
aI57
aI53
aI18
aI87
aI88
aI50
aa(lp264
I40
aI65
aI79
aI42
aI77
aI29
aI70
aI8
aI5
aI91
aI38
aI87
aI49
aI50
aI7
aI71
aI33
aI31
aI1
aI58
aa(lp265
I30
aI28
aI50
aI0
aI4
aI55
aI12
aI53
aI33
aI92
aI49
aI74
aI65
aI61
aI57
aI95
aI62
aI73
aI8
aI64
aa(lp266
I40
aI77
aI73
aI35
aI81
aI16
aI61
aI56
aI54
aI97
aI93
aI14
aI15
aI89
aI34
aI6
aI72
aI66
aI55
aI9
aa(lp267
I95
aI73
aI46
aI30
aI96
aI47
aI65
aI24
aI48
aI42
aI58
aI35
aI28
aI76
aI34
aI21
aI3
aI40
aI27
aI43
aa(lp268
I51
aI6
aI25
aI14
aI9
aI33
aI58
aI32
aI28
aI85
aI49
aI90
aI18
aI1
aI8
aI60
aI26
aI16
aI40
aI92
aa(lp269
I41
aI15
aI11
aI73
aI18
aI9
aI75
aI51
aI85
aI40
aI30
aI89
aI29
aI70
aI90
aI72
aI95
aI88
aI1
aI27
aa(lp270
I78
aI32
aI51
aI70
aI29
aI74
aI57
aI90
aI28
aI66
aI72
aI83
aI55
aI85
aI23
aI48
aI25
aI67
aI16
aI58
aa(lp271
I77
aI87
aI70
aI91
aI81
aI33
aI96
aI58
aI78
aI30
aI4
aI16
aI19
aI45
aI11
aI26
aI79
aI90
aI75
aI41
aa(lp272
I50
aI91
aI52
aI18
aI98
aI11
aI66
aI53
aI80
aI45
aI24
aI68
aI33
aI31
aI8
aI21
aI6
aI74
aI58
aI15
aa(lp273
I14
aI8
aI53
aI61
aI95
aI15
aI65
aI43
aI33
aI2
aI21
aI97
aI59
aI91
aI62
aI10
aI18
aI64
aI96
aI16
aa(lp274
I67
aI96
aI63
aI32
aI1
aI93
aI48
aI53
aI76
aI21
aI13
aI40
aI33
aI14
aI68
aI51
aI6
aI94
aI66
aI24
aa(lp275
I13
aI89
aI50
aI24
aI34
aI57
aI30
aI3
aI45
aI68
aI29
aI96
aI56
aI47
aI93
aI76
aI18
aI32
aI60
aI26
aa(lp276
I81
aI38
aI84
aI19
aI21
aI23
aI54
aI82
aI39
aI0
aI73
aI62
aI8
aI34
aI10
aI96
aI12
aI87
aI57
aI52
aa(lp277
I7
aI78
aI2
aI50
aI14
aI30
aI28
aI51
aI40
aI27
aI23
aI66
aI26
aI35
aI10
aI0
aI4
aI20
aI48
aI37
aa(lp278
I65
aI79
aI97
aI84
aI15
aI1
aI36
aI71
aI70
aI73
aI24
aI45
aI60
aI92
aI95
aI66
aI17
aI19
aI23
aI56
aa(lp279
I53
aI36
aI54
aI59
aI30
aI73
aI26
aI25
aI60
aI88
aI23
aI74
aI32
aI94
aI98
aI24
aI15
aI11
aI82
aI52
aa(lp280
I91
aI95
aI77
aI25
aI20
aI24
aI3
aI78
aI74
aI38
aI73
aI37
aI48
aI57
aI79
aI32
aI64
aI7
aI93
aI59
aa(lp281
I50
aI18
aI33
aI38
aI47
aI21
aI80
aI11
aI42
aI64
aI75
aI22
aI44
aI8
aI91
aI76
aI6
aI26
aI86
aI87
aa(lp282
I2
aI54
aI96
aI28
aI9
aI84
aI94
aI83
aI91
aI41
aI40
aI0
aI22
aI37
aI58
aI70
aI66
aI7
aI49
aI10
aa(lp283
I60
aI93
aI15
aI49
aI14
aI67
aI6
aI39
aI73
aI9
aI20
aI45
aI56
aI26
aI81
aI77
aI63
aI13
aI94
aI23
aa(lp284
I22
aI82
aI29
aI9
aI38
aI95
aI20
aI21
aI62
aI84
aI86
aI61
aI46
aI42
aI16
aI40
aI0
aI39
aI34
aI2
aa(lp285
I64
aI19
aI13
aI15
aI89
aI48
aI41
aI9
aI35
aI76
aI88
aI86
aI95
aI93
aI82
aI24
aI7
aI75
aI90
aI83
aa(lp286
I71
aI21
aI46
aI20
aI39
aI3
aI68
aI75
aI30
aI2
aI34
aI82
aI62
aI18
aI7
aI78
aI81
aI15
aI38
aI27
aa(lp287
I11
aI72
aI95
aI19
aI27
aI65
aI91
aI25
aI22
aI88
aI74
aI85
aI78
aI47
aI98
aI41
aI35
aI40
aI38
aI5
aa(lp288
I46
aI44
aI33
aI43
aI20
aI67
aI32
aI63
aI29
aI10
aI23
aI8
aI27
aI77
aI72
aI55
aI38
aI62
aI68
aI13
aa(lp289
I97
aI67
aI31
aI30
aI93
aI53
aI63
aI16
aI83
aI2
aI24
aI15
aI89
aI36
aI92
aI8
aI76
aI23
aI55
aI40
aa(lp290
I63
aI9
aI40
aI92
aI59
aI42
aI20
aI8
aI96
aI29
aI5
aI71
aI79
aI75
aI61
aI76
aI97
aI86
aI52
aI0
aa(lp291
I52
aI82
aI50
aI80
aI63
aI83
aI23
aI56
aI17
aI40
aI92
aI1
aI44
aI53
aI18
aI0
aI84
aI77
aI69
aI37
aa(lp292
I2
aI6
aI22
aI30
aI91
aI17
aI0
aI54
aI23
aI55
aI53
aI24
aI86
aI15
aI97
aI59
aI71
aI64
aI50
aI77
aa(lp293
I98
aI25
aI94
aI43
aI49
aI20
aI0
aI72
aI22
aI66
aI89
aI79
aI91
aI64
aI31
aI58
aI4
aI87
aI85
aI96
aa(lp294
I80
aI81
aI78
aI0
aI19
aI38
aI57
aI34
aI79
aI61
aI31
aI75
aI56
aI13
aI88
aI10
aI15
aI83
aI93
aI58
aa(lp295
I96
aI32
aI30
aI83
aI61
aI6
aI20
aI24
aI41
aI17
aI73
aI71
aI1
aI45
aI43
aI34
aI28
aI68
aI13
aI19
aa(lp296
I63
aI70
aI14
aI80
aI86
aI79
aI81
aI33
aI32
aI16
aI23
aI54
aI3
aI93
aI42
aI84
aI24
aI26
aI53
aI17
aa(lp297
I52
aI74
aI39
aI73
aI11
aI90
aI29
aI6
aI62
aI32
aI63
aI3
aI48
aI27
aI65
aI92
aI58
aI56
aI26
aI42
aa(lp298
I63
aI73
aI51
aI97
aI48
aI72
aI25
aI6
aI1
aI70
aI87
aI40
aI71
aI34
aI22
aI96
aI33
aI82
aI3
aI94
aa(lp299
I22
aI51
aI48
aI29
aI15
aI57
aI26
aI79
aI80
aI24
aI98
aI59
aI17
aI83
aI78
aI92
aI70
aI49
aI74
aI41
aa(lp300
I35
aI98
aI64
aI82
aI66
aI37
aI26
aI57
aI17
aI87
aI89
aI59
aI32
aI75
aI55
aI15
aI30
aI49
aI56
aI84
aa(lp301
I2
aI72
aI64
aI21
aI3
aI45
aI76
aI20
aI96
aI9
aI63
aI4
aI97
aI81
aI22
aI86
aI31
aI79
aI95
aI14
aa(lp302
I44
aI74
aI98
aI57
aI41
aI15
aI79
aI12
aI72
aI5
aI65
aI58
aI29
aI63
aI25
aI84
aI51
aI3
aI38
aI8
aa(lp303
I4
aI10
aI16
aI27
aI44
aI58
aI88
aI26
aI9
aI90
aI63
aI46
aI32
aI35
aI48
aI85
aI40
aI66
aI93
aI59
aa(lp304
I27
aI32
aI25
aI67
aI73
aI75
aI77
aI57
aI31
aI64
aI51
aI54
aI22
aI43
aI39
aI47
aI96
aI6
aI42
aI46
aa(lp305
I0
aI9
aI70
aI44
aI27
aI21
aI7
aI71
aI51
aI33
aI89
aI46
aI41
aI53
aI6
aI87
aI45
aI25
aI12
aI58
aa(lp306
I67
aI4
aI38
aI14
aI9
aI28
aI60
aI92
aI50
aI79
aI71
aI6
aI30
aI40
aI94
aI44
aI97
aI33
aI37
aI93
aa(lp307
I41
aI55
aI73
aI12
aI80
aI17
aI36
aI20
aI74
aI76
aI7
aI15
aI49
aI14
aI46
aI98
aI52
aI88
aI90
aI94
aa(lp308
I38
aI85
aI62
aI97
aI73
aI74
aI84
aI76
aI15
aI5
aI34
aI90
aI31
aI40
aI22
aI82
aI30
aI80
aI12
aI20
aa(lp309
I59
aI75
aI46
aI7
aI94
aI39
aI29
aI27
aI56
aI4
aI68
aI8
aI93
aI13
aI77
aI26
aI20
aI35
aI66
aI92
aa(lp310
I66
aI39
aI90
aI74
aI92
aI1
aI41
aI73
aI10
aI98
aI93
aI86
aI77
aI53
aI46
aI72
aI78
aI15
aI51
aI5
aa(lp311
I64
aI52
aI95
aI21
aI33
aI66
aI12
aI29
aI62
aI56
aI73
aI60
aI81
aI48
aI84
aI5
aI26
aI23
aI83
aI94
aa(lp312
I10
aI96
aI98
aI71
aI58
aI64
aI65
aI5
aI90
aI31
aI21
aI77
aI27
aI62
aI66
aI44
aI81
aI45
aI86
aI12
aa(lp313
I73
aI71
aI23
aI11
aI35
aI43
aI34
aI22
aI98
aI62
aI49
aI19
aI67
aI70
aI4
aI12
aI97
aI47
aI51
aI65
aa(lp314
I77
aI71
aI81
aI60
aI24
aI97
aI37
aI4
aI20
aI30
aI44
aI58
aI7
aI34
aI39
aI95
aI72
aI10
aI74
aI91
aa(lp315
I35
aI34
aI1
aI75
aI94
aI65
aI95
aI69
aI54
aI80
aI33
aI6
aI46
aI27
aI56
aI78
aI5
aI60
aI70
aI41
aa(lp316
I17
aI14
aI7
aI18
aI59
aI79
aI45
aI26
aI3
aI69
aI20
aI73
aI16
aI39
aI54
aI31
aI29
aI19
aI57
aI89
aa(lp317
I51
aI49
aI82
aI86
aI98
aI3
aI62
aI72
aI35
aI87
aI81
aI15
aI4
aI95
aI58
aI97
aI77
aI0
aI69
aI33
aa(lp318
I89
aI55
aI20
aI56
aI9
aI27
aI50
aI17
aI24
aI92
aI49
aI59
aI16
aI26
aI40
aI38
aI69
aI15
aI53
aI3
aa(lp319
I53
aI81
aI38
aI37
aI95
aI48
aI21
aI80
aI75
aI15
aI30
aI11
aI92
aI4
aI45
aI88
aI91
aI16
aI94
aI31
aa(lp320
I11
aI2
aI10
aI77
aI21
aI41
aI80
aI45
aI22
aI89
aI12
aI4
aI19
aI39
aI86
aI98
aI9
aI8
aI67
aI74
aa(lp321
I33
aI88
aI83
aI50
aI95
aI78
aI18
aI85
aI36
aI91
aI60
aI67
aI54
aI24
aI75
aI70
aI2
aI89
aI61
aI15
aa(lp322
I17
aI27
aI66
aI20
aI62
aI24
aI71
aI74
aI93
aI69
aI94
aI50
aI49
aI26
aI9
aI59
aI18
aI15
aI3
aI84
aa(lp323
I71
aI84
aI41
aI19
aI80
aI65
aI17
aI55
aI51
aI86
aI53
aI40
aI69
aI76
aI2
aI47
aI26
aI64
aI72
aI10
aa(lp324
I50
aI56
aI25
aI46
aI17
aI54
aI58
aI88
aI36
aI60
aI41
aI7
aI98
aI18
aI77
aI10
aI81
aI92
aI12
aI35
aa(lp325
I27
aI53
aI85
aI25
aI50
aI69
aI18
aI89
aI81
aI34
aI26
aI40
aI42
aI55
aI94
aI1
aI19
aI0
aI7
aI59
aa(lp326
I45
aI38
aI91
aI88
aI21
aI1
aI66
aI20
aI15
aI11
aI42
aI17
aI64
aI76
aI52
aI26
aI2
aI34
aI80
aI96
aa(lp327
I75
aI35
aI69
aI95
aI54
aI53
aI43
aI85
aI57
aI92
aI8
aI82
aI22
aI94
aI46
aI67
aI37
aI52
aI68
aI26
aa(lp328
I11
aI5
aI98
aI93
aI13
aI89
aI87
aI96
aI76
aI72
aI85
aI65
aI43
aI22
aI8
aI55
aI3
aI14
aI68
aI79
aa(lp329
I59
aI95
aI49
aI63
aI52
aI39
aI1
aI83
aI48
aI75
aI12
aI98
aI77
aI16
aI56
aI9
aI18
aI23
aI65
aI58
aa(lp330
I11
aI63
aI30
aI15
aI21
aI71
aI1
aI20
aI64
aI28
aI46
aI84
aI78
aI72
aI34
aI98
aI60
aI50
aI79
aI0
aa(lp331
I36
aI50
aI11
aI68
aI24
aI54
aI40
aI2
aI82
aI31
aI61
aI3
aI77
aI49
aI73
aI33
aI34
aI95
aI42
aI87
aa(lp332
I98
aI28
aI71
aI64
aI80
aI44
aI22
aI67
aI66
aI88
aI30
aI79
aI34
aI10
aI60
aI57
aI45
aI40
aI27
aI31
aa(lp333
I25
aI66
aI97
aI6
aI58
aI89
aI68
aI20
aI71
aI82
aI75
aI26
aI45
aI72
aI50
aI10
aI38
aI87
aI43
aI79
aa(lp334
I46
aI91
aI70
aI15
aI31
aI84
aI94
aI9
aI59
aI96
aI5
aI33
aI68
aI0
aI10
aI95
aI47
aI83
aI55
aI97
aa(lp335
I88
aI89
aI93
aI70
aI24
aI1
aI20
aI85
aI79
aI91
aI7
aI51
aI66
aI2
aI46
aI26
aI62
aI73
aI97
aI74
aa(lp336
I86
aI68
aI32
aI55
aI63
aI88
aI42
aI72
aI34
aI30
aI15
aI31
aI51
aI83
aI79
aI73
aI28
aI85
aI2
aI59
aa(lp337
I86
aI81
aI61
aI30
aI8
aI74
aI34
aI36
aI93
aI95
aI91
aI54
aI51
aI80
aI27
aI2
aI66
aI55
aI76
aI46
aa(lp338
I46
aI75
aI80
aI2
aI73
aI19
aI17
aI16
aI41
aI29
aI74
aI95
aI20
aI83
aI15
aI90
aI87
aI63
aI61
aI22
aa(lp339
I18
aI25
aI77
aI3
aI84
aI17
aI95
aI33
aI45
aI22
aI86
aI73
aI61
aI7
aI42
aI10
aI29
aI96
aI72
aI81
aa(lp340
I12
aI66
aI22
aI51
aI46
aI42
aI72
aI33
aI32
aI91
aI5
aI23
aI85
aI28
aI98
aI24
aI60
aI3
aI69
aI26
aa(lp341
I30
aI87
aI41
aI78
aI58
aI46
aI0
aI86
aI48
aI55
aI28
aI67
aI65
aI21
aI15
aI26
aI10
aI70
aI9
aI34
aa(lp342
I78
aI4
aI70
aI28
aI10
aI20
aI32
aI37
aI38
aI17
aI31
aI29
aI42
aI52
aI21
aI67
aI68
aI55
aI79
aI80
aa(lp343
I39
aI42
aI37
aI0
aI52
aI74
aI72
aI5
aI80
aI36
aI19
aI59
aI48
aI61
aI23
aI95
aI3
aI30
aI6
aI35
aa(lp344
I30
aI60
aI21
aI80
aI16
aI47
aI94
aI15
aI10
aI65
aI4
aI7
aI63
aI24
aI18
aI79
aI48
aI31
aI73
aI89
aa(lp345
I42
aI13
aI60
aI1
aI54
aI47
aI46
aI86
aI8
aI39
aI15
aI18
aI27
aI93
aI97
aI55
aI65
aI14
aI26
aI5
aa(lp346
I73
aI91
aI8
aI6
aI83
aI22
aI49
aI26
aI89
aI31
aI57
aI17
aI48
aI45
aI11
aI98
aI88
aI81
aI54
aI67
aa(lp347
I33
aI71
aI11
aI63
aI58
aI31
aI17
aI93
aI54
aI74
aI64
aI95
aI7
aI21
aI0
aI30
aI90
aI3
aI76
aI85
aa(lp348
I96
aI43
aI69
aI28
aI30
aI46
aI20
aI80
aI37
aI78
aI83
aI39
aI90
aI74
aI10
aI47
aI44
aI95
aI33
aI21
aa(lp349
I59
aI91
aI80
aI49
aI20
aI37
aI32
aI75
aI30
aI78
aI71
aI53
aI42
aI77
aI5
aI47
aI73
aI83
aI86
aI84
aa(lp350
I72
aI16
aI75
aI69
aI55
aI8
aI31
aI14
aI32
aI50
aI67
aI94
aI21
aI77
aI53
aI89
aI33
aI93
aI52
aI37
aa(lp351
I87
aI71
aI5
aI37
aI40
aI95
aI70
aI38
aI20
aI91
aI72
aI14
aI97
aI75
aI46
aI1
aI64
aI92
aI62
aI19
aa(lp352
I63
aI68
aI70
aI11
aI8
aI98
aI74
aI91
aI66
aI78
aI88
aI34
aI82
aI84
aI21
aI7
aI0
aI41
aI57
aI92
aa(lp353
I67
aI52
aI57
aI82
aI15
aI45
aI91
aI44
aI76
aI65
aI31
aI35
aI8
aI6
aI37
aI23
aI96
aI90
aI72
aI25
aa(lp354
I56
aI25
aI34
aI68
aI52
aI75
aI65
aI42
aI2
aI7
aI18
aI66
aI11
aI48
aI58
aI60
aI73
aI24
aI27
aI38
aa(lp355
I86
aI44
aI14
aI81
aI24
aI38
aI87
aI78
aI35
aI70
aI3
aI84
aI59
aI27
aI43
aI53
aI19
aI90
aI93
aI79
aa(lp356
I56
aI75
aI64
aI39
aI36
aI91
aI88
aI83
aI14
aI24
aI35
aI94
aI53
aI34
aI26
aI5
aI73
aI66
aI21
aI78
aa(lp357
I35
aI11
aI65
aI17
aI84
aI43
aI55
aI90
aI92
aI0
aI62
aI5
aI88
aI61
aI6
aI32
aI18
aI58
aI73
aI93
aa(lp358
I88
aI5
aI16
aI51
aI0
aI83
aI67
aI92
aI78
aI31
aI59
aI21
aI11
aI62
aI44
aI60
aI91
aI34
aI3
aI17
aa(lp359
I46
aI40
aI55
aI50
aI49
aI32
aI6
aI37
aI23
aI19
aI81
aI30
aI65
aI94
aI97
aI47
aI17
aI75
aI20
aI51
aa(lp360
I55
aI18
aI65
aI38
aI13
aI1
aI83
aI69
aI0
aI95
aI37
aI56
aI96
aI10
aI53
aI7
aI64
aI59
aI21
aI31
aa(lp361
I27
aI95
aI47
aI19
aI34
aI56
aI12
aI45
aI41
aI20
aI73
aI91
aI94
aI81
aI39
aI22
aI92
aI15
aI48
aI42
aa(lp362
I72
aI16
aI61
aI11
aI92
aI25
aI73
aI89
aI23
aI8
aI31
aI79
aI29
aI43
aI82
aI57
aI34
aI88
aI30
aI7
aa(lp363
I20
aI5
aI55
aI2
aI13
aI67
aI27
aI39
aI21
aI37
aI48
aI61
aI9
aI64
aI66
aI44
aI15
aI14
aI81
aI92
aa(lp364
I61
aI79
aI97
aI85
aI31
aI63
aI44
aI17
aI72
aI22
aI23
aI53
aI57
aI28
aI98
aI80
aI2
aI90
aI50
aI36
aa(lp365
I16
aI81
aI60
aI46
aI93
aI8
aI64
aI25
aI42
aI32
aI3
aI92
aI89
aI61
aI77
aI2
aI71
aI45
aI43
aI95
aa(lp366
I11
aI49
aI27
aI65
aI25
aI60
aI52
aI41
aI9
aI15
aI34
aI98
aI53
aI71
aI95
aI82
aI40
aI81
aI29
aI93
aa(lp367
I44
aI9
aI38
aI65
aI25
aI20
aI97
aI51
aI4
aI7
aI11
aI6
aI84
aI16
aI41
aI47
aI50
aI76
aI48
aI30
aa(lp368
I78
aI65
aI6
aI24
aI75
aI22
aI44
aI60
aI3
aI71
aI42
aI15
aI53
aI17
aI16
aI61
aI93
aI23
aI29
aI48
aa(lp369
I18
aI0
aI96
aI84
aI81
aI75
aI59
aI76
aI85
aI55
aI2
aI94
aI14
aI66
aI8
aI53
aI57
aI74
aI27
aI60
aa(lp370
I22
aI24
aI13
aI45
aI71
aI0
aI20
aI7
aI92
aI42
aI1
aI36
aI62
aI44
aI77
aI50
aI52
aI34
aI91
aI80
aa(lp371
I81
aI12
aI73
aI65
aI79
aI58
aI8
aI45
aI29
aI74
aI69
aI37
aI3
aI24
aI56
aI80
aI26
aI42
aI32
aI96
aa(lp372
I87
aI97
aI6
aI61
aI79
aI90
aI23
aI69
aI89
aI47
aI98
aI45
aI58
aI7
aI40
aI9
aI38
aI31
aI96
aI21
aa(lp373
I69
aI86
aI89
aI90
aI95
aI37
aI21
aI78
aI35
aI23
aI76
aI75
aI47
aI94
aI63
aI43
aI26
aI70
aI65
aI22
aa(lp374
I82
aI89
aI88
aI53
aI55
aI54
aI86
aI8
aI38
aI19
aI78
aI28
aI0
aI10
aI98
aI76
aI95
aI72
aI84
aI97
aa(lp375
I4
aI98
aI51
aI65
aI49
aI67
aI59
aI28
aI21
aI2
aI60
aI84
aI62
aI89
aI25
aI14
aI44
aI50
aI79
aI47
aa(lp376
I29
aI91
aI2
aI11
aI90
aI56
aI67
aI20
aI96
aI35
aI92
aI97
aI86
aI27
aI0
aI80
aI8
aI93
aI88
aI94
aa(lp377
I88
aI37
aI68
aI21
aI77
aI24
aI70
aI4
aI18
aI98
aI94
aI76
aI83
aI29
aI63
aI89
aI58
aI8
aI60
aI22
aa(lp378
I7
aI4
aI58
aI82
aI18
aI41
aI64
aI45
aI32
aI33
aI87
aI90
aI75
aI29
aI96
aI85
aI88
aI26
aI53
aI72
aa(lp379
I34
aI32
aI76
aI86
aI80
aI90
aI91
aI42
aI43
aI82
aI23
aI18
aI70
aI15
aI17
aI55
aI19
aI53
aI98
aI45
aa(lp380
I46
aI28
aI7
aI58
aI87
aI9
aI8
aI47
aI35
aI54
aI62
aI75
aI17
aI55
aI76
aI84
aI79
aI66
aI11
aI23
aa(lp381
I51
aI36
aI60
aI48
aI2
aI6
aI56
aI52
aI23
aI10
aI16
aI20
aI77
aI76
aI71
aI43
aI22
aI79
aI54
aI12
aa(lp382
I68
aI15
aI19
aI7
aI47
aI69
aI33
aI61
aI9
aI30
aI10
aI32
aI62
aI14
aI26
aI12
aI95
aI42
aI40
aI24
aa(lp383
I89
aI78
aI91
aI12
aI60
aI31
aI19
aI92
aI82
aI86
aI55
aI48
aI71
aI69
aI28
aI26
aI49
aI79
aI11
aI22
aa(lp384
I1
aI72
aI15
aI88
aI56
aI90
aI55
aI9
aI71
aI66
aI97
aI73
aI51
aI6
aI92
aI40
aI85
aI25
aI30
aI5
aa(lp385
I1
aI58
aI19
aI91
aI71
aI39
aI31
aI55
aI75
aI78
aI44
aI23
aI24
aI84
aI9
aI77
aI41
aI59
aI81
aI22
aa(lp386
I27
aI59
aI44
aI89
aI96
aI98
aI54
aI26
aI55
aI12
aI17
aI41
aI10
aI82
aI83
aI66
aI74
aI36
aI77
aI37
aa(lp387
I95
aI18
aI52
aI56
aI47
aI45
aI27
aI92
aI65
aI44
aI16
aI79
aI80
aI23
aI74
aI20
aI43
aI60
aI34
aI31
aa(lp388
I44
aI23
aI30
aI53
aI33
aI87
aI69
aI71
aI88
aI95
aI66
aI35
aI77
aI9
aI85
aI28
aI83
aI78
aI82
aI63
aa(lp389
I16
aI73
aI82
aI50
aI55
aI59
aI58
aI19
aI7
aI28
aI17
aI21
aI96
aI85
aI18
aI83
aI69
aI41
aI74
aI52
aa(lp390
I34
aI48
aI37
aI0
aI95
aI77
aI53
aI88
aI1
aI31
aI65
aI78
aI89
aI70
aI94
aI59
aI81
aI47
aI76
aI54
aa(lp391
I33
aI81
aI45
aI17
aI68
aI76
aI11
aI1
aI54
aI4
aI32
aI83
aI39
aI51
aI87
aI47
aI63
aI40
aI34
aI90
aa(lp392
I32
aI26
aI78
aI95
aI88
aI70
aI56
aI61
aI22
aI2
aI27
aI81
aI30
aI57
aI35
aI68
aI34
aI54
aI98
aI15
aa(lp393
I55
aI54
aI45
aI80
aI87
aI48
aI25
aI98
aI72
aI42
aI44
aI31
aI46
aI41
aI49
aI21
aI58
aI50
aI67
aI97
aa(lp394
I85
aI83
aI1
aI55
aI7
aI54
aI82
aI8
aI10
aI38
aI86
aI95
aI71
aI6
aI3
aI93
aI40
aI79
aI9
aI90
aa(lp395
I88
aI89
aI5
aI48
aI62
aI92
aI76
aI47
aI58
aI55
aI10
aI24
aI63
aI98
aI42
aI90
aI74
aI34
aI43
aI31
aa(lp396
I67
aI72
aI87
aI25
aI22
aI58
aI62
aI18
aI42
aI98
aI63
aI48
aI0
aI69
aI3
aI36
aI17
aI65
aI30
aI49
aa(lp397
I94
aI77
aI98
aI74
aI71
aI18
aI82
aI21
aI86
aI66
aI52
aI0
aI11
aI20
aI61
aI27
aI54
aI22
aI88
aI51
aa(lp398
I72
aI95
aI40
aI15
aI22
aI30
aI3
aI13
aI2
aI97
aI85
aI67
aI16
aI21
aI4
aI29
aI33
aI7
aI78
aI73
aa(lp399
I71
aI59
aI96
aI66
aI48
aI54
aI18
aI45
aI91
aI9
aI30
aI64
aI38
aI74
aI14
aI25
aI63
aI70
aI80
aI68
aa(lp400
I36
aI33
aI80
aI52
aI7
aI50
aI29
aI87
aI38
aI57
aI62
aI73
aI15
aI4
aI3
aI59
aI37
aI34
aI25
aI94
aa(lp401
I84
aI91
aI63
aI21
aI58
aI93
aI53
aI74
aI65
aI12
aI15
aI6
aI41
aI52
aI26
aI40
aI96
aI43
aI56
aI7
aa(lp402
I10
aI75
aI63
aI82
aI69
aI23
aI61
aI4
aI3
aI13
aI81
aI1
aI15
aI24
aI77
aI92
aI37
aI84
aI86
aI17
aa(lp403
I47
aI39
aI57
aI62
aI1
aI25
aI88
aI93
aI83
aI30
aI3
aI41
aI2
aI48
aI53
aI80
aI5
aI12
aI31
aI22
aa(lp404
I20
aI39
aI92
aI89
aI5
aI6
aI16
aI23
aI14
aI54
aI77
aI88
aI32
aI40
aI30
aI71
aI76
aI35
aI67
aI95
aa(lp405
I59
aI39
aI42
aI84
aI50
aI66
aI21
aI69
aI62
aI56
aI33
aI82
aI96
aI58
aI80
aI83
aI75
aI36
aI0
aI86
aa(lp406
I1
aI76
aI12
aI7
aI71
aI96
aI53
aI88
aI32
aI2
aI48
aI80
aI63
aI46
aI77
aI40
aI11
aI19
aI94
aI78
aa(lp407
I3
aI79
aI91
aI66
aI42
aI48
aI71
aI22
aI37
aI90
aI87
aI56
aI31
aI14
aI65
aI34
aI40
aI61
aI80
aI17
aa(lp408
I18
aI6
aI56
aI52
aI16
aI15
aI41
aI7
aI35
aI9
aI88
aI29
aI28
aI26
aI81
aI11
aI13
aI21
aI89
aI57
aa(lp409
I33
aI46
aI26
aI35
aI22
aI38
aI86
aI63
aI21
aI84
aI43
aI40
aI80
aI74
aI25
aI62
aI83
aI23
aI24
aI66
aa(lp410
I34
aI17
aI51
aI19
aI29
aI62
aI94
aI95
aI22
aI27
aI83
aI16
aI15
aI11
aI64
aI7
aI21
aI31
aI78
aI39
aa(lp411
I14
aI79
aI1
aI67
aI39
aI33
aI21
aI76
aI49
aI97
aI57
aI70
aI41
aI73
aI47
aI56
aI54
aI20
aI81
aI94
aa(lp412
I3
aI1
aI15
aI13
aI41
aI32
aI58
aI83
aI26
aI16
aI55
aI70
aI4
aI76
aI22
aI24
aI30
aI92
aI14
aI37
aa(lp413
I3
aI93
aI57
aI12
aI7
aI33
aI51
aI94
aI6
aI78
aI88
aI18
aI89
aI77
aI11
aI24
aI37
aI15
aI48
aI96
aa(lp414
I18
aI24
aI55
aI2
aI70
aI45
aI14
aI0
aI48
aI93
aI90
aI77
aI65
aI25
aI32
aI94
aI98
aI89
aI10
aI35
aa(lp415
I82
aI67
aI81
aI34
aI33
aI6
aI28
aI95
aI46
aI2
aI27
aI83
aI16
aI66
aI1
aI25
aI63
aI78
aI15
aI85
aa(lp416
I64
aI7
aI35
aI49
aI71
aI93
aI85
aI50
aI78
aI69
aI87
aI61
aI47
aI86
aI38
aI91
aI62
aI23
aI67
aI24
aa(lp417
I80
aI22
aI24
aI89
aI44
aI35
aI33
aI0
aI6
aI77
aI85
aI34
aI57
aI74
aI23
aI58
aI63
aI40
aI5
aI92
aa(lp418
I88
aI13
aI1
aI51
aI21
aI78
aI89
aI61
aI71
aI93
aI49
aI97
aI80
aI6
aI18
aI64
aI22
aI26
aI15
aI44
aa(lp419
I92
aI89
aI7
aI38
aI42
aI88
aI52
aI69
aI25
aI55
aI72
aI18
aI67
aI51
aI97
aI62
aI45
aI30
aI54
aI60
aa(lp420
I95
aI87
aI89
aI48
aI49
aI36
aI83
aI29
aI10
aI65
aI6
aI21
aI55
aI39
aI27
aI28
aI58
aI74
aI14
aI98
aa(lp421
I31
aI69
aI27
aI17
aI78
aI11
aI35
aI60
aI33
aI88
aI16
aI76
aI39
aI40
aI20
aI74
aI66
aI65
aI56
aI9
aa(lp422
I20
aI52
aI96
aI4
aI54
aI15
aI3
aI62
aI61
aI38
aI30
aI46
aI94
aI14
aI60
aI73
aI91
aI37
aI65
aI50
aa(lp423
I91
aI22
aI53
aI97
aI29
aI90
aI81
aI64
aI66
aI15
aI17
aI19
aI93
aI74
aI58
aI83
aI72
aI76
aI51
aI28
aa(lp424
I73
aI15
aI46
aI14
aI25
aI75
aI84
aI44
aI67
aI0
aI34
aI79
aI51
aI68
aI50
aI62
aI28
aI58
aI71
aI1
aa(lp425
I22
aI13
aI61
aI25
aI93
aI63
aI21
aI18
aI41
aI89
aI17
aI57
aI42
aI44
aI55
aI73
aI98
aI7
aI84
aI97
aa(lp426
I5
aI93
aI17
aI13
aI36
aI69
aI73
aI94
aI80
aI56
aI49
aI8
aI27
aI79
aI25
aI1
aI37
aI70
aI65
aI16
aa(lp427
I29
aI54
aI0
aI62
aI32
aI47
aI36
aI94
aI45
aI67
aI20
aI12
aI93
aI82
aI10
aI91
aI50
aI80
aI51
aI76
aa(lp428
I77
aI64
aI7
aI57
aI81
aI41
aI68
aI97
aI91
aI67
aI59
aI74
aI52
aI14
aI4
aI29
aI96
aI62
aI19
aI83
aa(lp429
I85
aI69
aI94
aI89
aI38
aI24
aI2
aI65
aI71
aI70
aI4
aI58
aI77
aI91
aI20
aI72
aI22
aI86
aI87
aI35
aa(lp430
I95
aI30
aI90
aI75
aI46
aI86
aI40
aI59
aI13
aI62
aI43
aI35
aI48
aI32
aI1
aI18
aI7
aI21
aI27
aI94
aa(lp431
I67
aI53
aI82
aI35
aI26
aI96
aI34
aI31
aI39
aI78
aI48
aI44
aI95
aI85
aI50
aI90
aI77
aI4
aI23
aI68
aa(lp432
I74
aI13
aI83
aI37
aI7
aI62
aI85
aI5
aI0
aI21
aI64
aI72
aI34
aI93
aI87
aI42
aI32
aI24
aI36
aI45
aa(lp433
I1
aI39
aI75
aI67
aI30
aI9
aI89
aI45
aI25
aI7
aI43
aI82
aI78
aI56
aI80
aI96
aI69
aI20
aI0
aI12
aa(lp434
I46
aI50
aI18
aI34
aI32
aI96
aI64
aI36
aI56
aI79
aI83
aI62
aI75
aI81
aI80
aI27
aI22
aI8
aI67
aI30
aa(lp435
I83
aI23
aI44
aI8
aI46
aI39
aI20
aI89
aI97
aI28
aI68
aI88
aI69
aI91
aI5
aI70
aI90
aI94
aI50
aI19
aa(lp436
I3
aI33
aI74
aI88
aI21
aI45
aI40
aI23
aI54
aI18
aI12
aI50
aI91
aI60
aI70
aI6
aI85
aI62
aI58
aI93
aa(lp437
I25
aI29
aI89
aI96
aI79
aI5
aI8
aI37
aI76
aI84
aI53
aI81
aI95
aI97
aI63
aI23
aI2
aI10
aI0
aI41
aa(lp438
I60
aI92
aI96
aI30
aI76
aI2
aI72
aI86
aI82
aI38
aI27
aI17
aI52
aI4
aI62
aI58
aI8
aI85
aI64
aI15
aa(lp439
I68
aI8
aI75
aI28
aI57
aI50
aI82
aI66
aI3
aI84
aI31
aI26
aI5
aI15
aI92
aI63
aI7
aI54
aI60
aI29
aa(lp440
I73
aI70
aI60
aI79
aI28
aI10
aI76
aI33
aI92
aI34
aI89
aI67
aI66
aI96
aI62
aI59
aI7
aI16
aI26
aI15
aa(lp441
I56
aI89
aI5
aI27
aI10
aI31
aI39
aI41
aI71
aI37
aI19
aI53
aI94
aI9
aI95
aI43
aI2
aI58
aI78
aI77
aa(lp442
I7
aI8
aI58
aI48
aI41
aI73
aI61
aI34
aI24
aI76
aI29
aI88
aI96
aI11
aI39
aI38
aI9
aI84
aI85
aI65
aa(lp443
I53
aI60
aI12
aI68
aI20
aI93
aI75
aI89
aI14
aI51
aI62
aI31
aI50
aI38
aI11
aI26
aI70
aI76
aI78
aI30
aa(lp444
I18
aI12
aI10
aI96
aI7
aI43
aI46
aI33
aI59
aI66
aI49
aI82
aI16
aI20
aI73
aI15
aI58
aI80
aI64
aI74
aa(lp445
I1
aI48
aI76
aI17
aI22
aI82
aI83
aI98
aI21
aI30
aI40
aI78
aI5
aI81
aI80
aI63
aI58
aI44
aI43
aI60
aa(lp446
I98
aI58
aI34
aI62
aI80
aI55
aI75
aI44
aI79
aI90
aI1
aI97
aI91
aI46
aI68
aI13
aI7
aI3
aI84
aI45
aa(lp447
I51
aI73
aI22
aI58
aI36
aI30
aI31
aI60
aI4
aI79
aI8
aI21
aI47
aI50
aI48
aI12
aI75
aI45
aI97
aI53
aa(lp448
I24
aI98
aI2
aI38
aI58
aI70
aI84
aI78
aI19
aI85
aI43
aI14
aI30
aI13
aI91
aI26
aI74
aI22
aI57
aI18
aa(lp449
I64
aI91
aI52
aI15
aI16
aI86
aI45
aI41
aI80
aI88
aI34
aI32
aI37
aI61
aI0
aI81
aI70
aI62
aI90
aI30
aa(lp450
I5
aI30
aI83
aI73
aI13
aI2
aI78
aI52
aI41
aI43
aI49
aI16
aI75
aI18
aI68
aI64
aI93
aI76
aI77
aI8
aa(lp451
I22
aI38
aI14
aI54
aI71
aI39
aI23
aI57
aI41
aI18
aI42
aI37
aI72
aI58
aI10
aI8
aI84
aI9
aI94
aI65
aa(lp452
I30
aI18
aI91
aI71
aI10
aI29
aI39
aI61
aI17
aI95
aI51
aI62
aI69
aI46
aI27
aI8
aI60
aI82
aI4
aI33
aa(lp453
I5
aI74
aI51
aI23
aI80
aI92
aI61
aI84
aI13
aI64
aI82
aI83
aI69
aI88
aI44
aI46
aI21
aI6
aI58
aI62
aa(lp454
I85
aI61
aI59
aI92
aI58
aI87
aI81
aI88
aI79
aI8
aI90
aI2
aI94
aI51
aI68
aI3
aI60
aI44
aI27
aI33
aa(lp455
I2
aI11
aI62
aI18
aI87
aI77
aI82
aI93
aI78
aI53
aI41
aI65
aI29
aI90
aI35
aI95
aI16
aI12
aI7
aI91
aa(lp456
I5
aI73
aI9
aI14
aI58
aI80
aI54
aI36
aI52
aI94
aI1
aI32
aI13
aI62
aI48
aI17
aI56
aI68
aI20
aI7
aa(lp457
I77
aI44
aI31
aI57
aI54
aI88
aI18
aI45
aI76
aI51
aI73
aI53
aI49
aI58
aI98
aI86
aI60
aI66
aI95
aI83
aa(lp458
I81
aI34
aI21
aI13
aI40
aI9
aI12
aI41
aI92
aI67
aI8
aI5
aI18
aI78
aI4
aI10
aI51
aI74
aI49
aI46
aa(lp459
I31
aI92
aI7
aI55
aI96
aI62
aI36
aI86
aI25
aI10
aI12
aI26
aI63
aI66
aI33
aI68
aI18
aI78
aI81
aI3
aa(lp460
I65
aI58
aI20
aI5
aI7
aI43
aI57
aI8
aI95
aI63
aI93
aI21
aI29
aI56
aI96
aI31
aI23
aI78
aI62
aI37
aa(lp461
I50
aI75
aI98
aI25
aI58
aI82
aI84
aI46
aI7
aI47
aI11
aI1
aI15
aI44
aI24
aI32
aI26
aI77
aI53
aI64
aa(lp462
I3
aI59
aI11
aI51
aI50
aI64
aI97
aI91
aI25
aI65
aI10
aI92
aI55
aI47
aI21
aI7
aI40
aI81
aI54
aI17
aa(lp463
I44
aI16
aI66
aI26
aI81
aI95
aI25
aI70
aI35
aI31
aI85
aI34
aI14
aI96
aI2
aI47
aI82
aI10
aI23
aI49
aa(lp464
I2
aI80
aI45
aI7
aI87
aI98
aI24
aI8
aI35
aI67
aI9
aI33
aI15
aI3
aI58
aI82
aI39
aI68
aI53
aI57
aa(lp465
I80
aI78
aI31
aI50
aI94
aI19
aI61
aI59
aI17
aI69
aI64
aI71
aI21
aI7
aI74
aI98
aI72
aI70
aI47
aI81
aa(lp466
I11
aI81
aI3
aI13
aI43
aI73
aI15
aI48
aI88
aI68
aI66
aI54
aI92
aI74
aI41
aI95
aI4
aI9
aI59
aI77
aa(lp467
I37
aI29
aI82
aI52
aI54
aI47
aI43
aI70
aI21
aI95
aI24
aI41
aI69
aI45
aI77
aI91
aI73
aI80
aI60
aI15
aa(lp468
I75
aI56
aI45
aI52
aI42
aI70
aI5
aI81
aI44
aI18
aI49
aI84
aI69
aI62
aI68
aI48
aI26
aI72
aI92
aI85
aa(lp469
I30
aI22
aI37
aI24
aI70
aI92
aI28
aI56
aI79
aI16
aI1
aI29
aI90
aI68
aI69
aI84
aI63
aI0
aI71
aI66
aa(lp470
I92
aI23
aI28
aI16
aI45
aI30
aI84
aI70
aI1
aI89
aI60
aI50
aI42
aI40
aI96
aI51
aI7
aI90
aI82
aI64
aa(lp471
I1
aI38
aI0
aI3
aI62
aI73
aI21
aI12
aI31
aI89
aI81
aI9
aI18
aI96
aI26
aI58
aI16
aI54
aI98
aI97
aa(lp472
I41
aI36
aI37
aI43
aI47
aI65
aI50
aI57
aI9
aI84
aI90
aI20
aI48
aI61
aI71
aI89
aI35
aI22
aI18
aI40
aa(lp473
I81
aI1
aI89
aI6
aI93
aI10
aI66
aI2
aI32
aI17
aI87
aI59
aI74
aI90
aI58
aI31
aI67
aI73
aI5
aI28
aa(lp474
I38
aI61
aI81
aI34
aI35
aI23
aI26
aI50
aI43
aI2
aI41
aI3
aI84
aI8
aI20
aI58
aI82
aI66
aI21
aI15
aa(lp475
I36
aI47
aI86
aI98
aI23
aI28
aI20
aI27
aI49
aI87
aI78
aI95
aI24
aI63
aI94
aI77
aI35
aI7
aI44
aI46
aa(lp476
I29
aI48
aI64
aI42
aI10
aI50
aI30
aI5
aI11
aI4
aI38
aI71
aI21
aI91
aI65
aI43
aI55
aI86
aI59
aI39
aa(lp477
I35
aI69
aI6
aI64
aI78
aI5
aI9
aI20
aI76
aI36
aI24
aI4
aI90
aI18
aI98
aI7
aI31
aI57
aI70
aI93
aa(lp478
I87
aI58
aI97
aI74
aI37
aI98
aI61
aI35
aI22
aI14
aI46
aI27
aI54
aI32
aI5
aI49
aI20
aI15
aI18
aI1
aa(lp479
I22
aI74
aI84
aI56
aI69
aI93
aI64
aI17
aI43
aI58
aI70
aI29
aI75
aI89
aI14
aI90
aI80
aI48
aI78
aI55
aa(lp480
I38
aI34
aI52
aI70
aI35
aI43
aI75
aI46
aI0
aI90
aI76
aI66
aI3
aI44
aI71
aI20
aI59
aI73
aI12
aI25
aa(lp481
I22
aI97
aI93
aI69
aI18
aI90
aI67
aI14
aI47
aI73
aI29
aI32
aI62
aI71
aI12
aI11
aI83
aI46
aI79
aI50
aa(lp482
I90
aI36
aI74
aI2
aI96
aI61
aI24
aI15
aI28
aI84
aI8
aI25
aI67
aI38
aI72
aI26
aI1
aI62
aI91
aI76
aa(lp483
I47
aI89
aI4
aI6
aI71
aI34
aI82
aI43
aI22
aI57
aI84
aI15
aI61
aI14
aI7
aI13
aI2
aI73
aI97
aI41
aa(lp484
I29
aI95
aI31
aI6
aI79
aI40
aI83
aI23
aI52
aI25
aI18
aI97
aI28
aI56
aI82
aI8
aI42
aI70
aI93
aI61
aa(lp485
I33
aI20
aI44
aI68
aI80
aI64
aI98
aI84
aI28
aI41
aI7
aI57
aI87
aI5
aI12
aI21
aI55
aI89
aI54
aI66
aa(lp486
I68
aI71
aI55
aI84
aI79
aI61
aI98
aI4
aI17
aI31
aI23
aI51
aI7
aI85
aI80
aI40
aI47
aI77
aI59
aI34
aa(lp487
I6
aI70
aI18
aI22
aI13
aI93
aI71
aI15
aI34
aI81
aI16
aI88
aI28
aI36
aI7
aI3
aI59
aI12
aI79
aI19
aa(lp488
I97
aI61
aI11
aI16
aI23
aI43
aI29
aI56
aI84
aI33
aI26
aI83
aI37
aI98
aI15
aI69
aI86
aI47
aI70
aI58
aa(lp489
I30
aI22
aI55
aI20
aI79
aI98
aI38
aI43
aI46
aI16
aI75
aI19
aI21
aI12
aI90
aI44
aI65
aI93
aI5
aI0
aa(lp490
I7
aI79
aI58
aI35
aI0
aI38
aI66
aI3
aI82
aI86
aI77
aI90
aI44
aI73
aI96
aI31
aI51
aI6
aI14
aI10
aa(lp491
I88
aI91
aI68
aI35
aI27
aI66
aI40
aI71
aI51
aI2
aI36
aI76
aI46
aI72
aI80
aI25
aI37
aI32
aI52
aI60
aa(lp492
I43
aI25
aI94
aI59
aI47
aI32
aI87
aI37
aI14
aI3
aI96
aI1
aI41
aI42
aI8
aI62
aI11
aI16
aI2
aI24
aa(lp493
I33
aI40
aI75
aI61
aI37
aI66
aI68
aI85
aI35
aI23
aI91
aI94
aI51
aI77
aI70
aI67
aI59
aI46
aI96
aI42
aa(lp494
I19
aI83
aI11
aI16
aI86
aI74
aI84
aI35
aI3
aI50
aI67
aI13
aI78
aI59
aI91
aI80
aI48
aI81
aI69
aI79
aa(lp495
I35
aI51
aI58
aI17
aI75
aI55
aI73
aI22
aI4
aI68
aI81
aI40
aI27
aI2
aI69
aI36
aI25
aI88
aI49
aI44
aa(lp496
I65
aI80
aI68
aI16
aI64
aI66
aI28
aI33
aI25
aI29
aI90
aI22
aI42
aI83
aI31
aI46
aI36
aI26
aI49
aI51
aa(lp497
I32
aI40
aI71
aI89
aI67
aI41
aI37
aI21
aI11
aI13
aI80
aI87
aI92
aI39
aI91
aI51
aI81
aI50
aI30
aI27
aa(lp498
I90
aI85
aI66
aI82
aI56
aI81
aI33
aI95
aI5
aI93
aI22
aI31
aI96
aI64
aI61
aI43
aI79
aI74
aI27
aI14
aa(lp499
I61
aI41
aI66
aI73
aI15
aI72
aI71
aI57
aI62
aI37
aI63
aI85
aI28
aI13
aI94
aI46
aI86
aI70
aI79
aI69
aa(lp500
I70
aI60
aI75
aI34
aI42
aI47
aI53
aI20
aI66
aI93
aI25
aI11
aI28
aI68
aI35
aI22
aI67
aI38
aI0
aI87
aa(lp501
I19
aI26
aI89
aI69
aI6
aI98
aI93
aI2
aI52
aI46
aI48
aI50
aI67
aI4
aI20
aI8
aI75
aI97
aI31
aI87
aa(lp502
I46
aI12
aI45
aI72
aI8
aI39
aI25
aI47
aI0
aI9
aI26
aI3
aI15
aI51
aI76
aI31
aI50
aI78
aI16
aI67
aa(lp503
I62
aI75
aI89
aI80
aI97
aI67
aI13
aI53
aI27
aI85
aI28
aI60
aI71
aI69
aI48
aI20
aI10
aI47
aI4
aI12
aa(lp504
I19
aI35
aI92
aI11
aI14
aI4
aI20
aI80
aI24
aI54
aI68
aI85
aI47
aI12
aI18
aI10
aI77
aI43
aI33
aI36
aa(lp505
I73
aI85
aI47
aI74
aI34
aI37
aI60
aI4
aI70
aI18
aI93
aI36
aI26
aI6
aI84
aI63
aI76
aI91
aI94
aI45
aa(lp506
I92
aI74
aI9
aI50
aI97
aI47
aI57
aI6
aI14
aI11
aI40
aI48
aI55
aI37
aI52
aI31
aI27
aI98
aI88
aI68
aa(lp507
I47
aI24
aI7
aI89
aI51
aI21
aI41
aI71
aI13
aI61
aI95
aI80
aI53
aI90
aI4
aI44
aI45
aI14
aI91
aI50
aa(lp508
I7
aI13
aI23
aI97
aI17
aI65
aI89
aI75
aI47
aI10
aI11
aI73
aI14
aI68
aI63
aI71
aI61
aI79
aI40
aI49
aa(lp509
I18
aI82
aI33
aI40
aI49
aI7
aI88
aI14
aI78
aI54
aI66
aI31
aI63
aI17
aI90
aI25
aI28
aI89
aI24
aI97
aa(lp510
I53
aI30
aI65
aI52
aI64
aI93
aI81
aI83
aI63
aI98
aI14
aI82
aI62
aI15
aI44
aI34
aI35
aI49
aI31
aI96
aa(lp511
I16
aI68
aI56
aI60
aI44
aI26
aI80
aI29
aI8
aI28
aI92
aI59
aI1
aI19
aI77
aI93
aI32
aI97
aI76
aI14
aa(lp512
I19
aI59
aI8
aI29
aI35
aI78
aI6
aI23
aI38
aI7
aI72
aI41
aI71
aI67
aI60
aI22
aI48
aI55
aI18
aI81
aa(lp513
I42
aI11
aI80
aI91
aI7
aI82
aI94
aI54
aI56
aI4
aI45
aI28
aI15
aI13
aI70
aI19
aI34
aI31
aI20
aI75
aa(lp514
I18
aI96
aI20
aI72
aI36
aI56
aI42
aI60
aI74
aI2
aI21
aI78
aI43
aI64
aI49
aI87
aI85
aI30
aI91
aI7
aa(lp515
I1
aI47
aI41
aI61
aI8
aI27
aI40
aI46
aI73
aI15
aI91
aI97
aI96
aI22
aI89
aI77
aI44
aI2
aI72
aI30
aa(lp516
I32
aI82
aI27
aI4
aI48
aI67
aI35
aI49
aI56
aI41
aI19
aI0
aI98
aI96
aI50
aI78
aI9
aI1
aI15
aI42
aa(lp517
I86
aI5
aI29
aI81
aI10
aI15
aI61
aI90
aI8
aI42
aI2
aI40
aI32
aI20
aI7
aI24
aI18
aI92
aI52
aI55
aa(lp518
I69
aI44
aI15
aI94
aI73
aI51
aI78
aI71
aI36
aI62
aI83
aI46
aI12
aI74
aI97
aI87
aI45
aI3
aI33
aI61
aa(lp519
I83
aI72
aI67
aI79
aI69
aI25
aI34
aI50
aI73
aI71
aI31
aI29
aI85
aI74
aI93
aI62
aI22
aI78
aI63
aI47
aa(lp520
I33
aI84
aI50
aI85
aI46
aI36
aI53
aI9
aI58
aI39
aI93
aI10
aI2
aI37
aI1
aI28
aI35
aI43
aI72
aI45
aa(lp521
I70
aI19
aI51
aI72
aI29
aI9
aI22
aI48
aI46
aI83
aI80
aI34
aI74
aI96
aI52
aI75
aI86
aI79
aI60
aI40
aa(lp522
I70
aI23
aI98
aI57
aI33
aI13
aI90
aI83
aI15
aI24
aI32
aI64
aI87
aI82
aI42
aI71
aI56
aI39
aI93
aI1
aa(lp523
I84
aI73
aI27
aI35
aI67
aI90
aI96
aI20
aI21
aI87
aI1
aI76
aI56
aI24
aI69
aI16
aI43
aI78
aI47
aI36
aa(lp524
I77
aI92
aI88
aI86
aI15
aI63
aI17
aI31
aI81
aI55
aI48
aI85
aI93
aI21
aI8
aI23
aI5
aI22
aI18
aI62
aa(lp525
I1
aI28
aI32
aI50
aI36
aI8
aI34
aI67
aI73
aI76
aI0
aI26
aI58
aI87
aI24
aI68
aI21
aI78
aI18
aI30
aa(lp526
I14
aI15
aI48
aI75
aI3
aI52
aI28
aI45
aI2
aI27
aI86
aI6
aI55
aI60
aI38
aI22
aI49
aI37
aI9
aI80
aa(lp527
I74
aI92
aI77
aI58
aI35
aI85
aI14
aI66
aI32
aI2
aI62
aI83
aI26
aI98
aI86
aI78
aI39
aI36
aI82
aI55
aa(lp528
I61
aI78
aI93
aI83
aI31
aI32
aI89
aI57
aI54
aI4
aI27
aI90
aI6
aI59
aI60
aI81
aI20
aI79
aI98
aI67
aa(lp529
I20
aI8
aI85
aI53
aI54
aI87
aI90
aI48
aI19
aI62
aI24
aI3
aI29
aI28
aI17
aI13
aI12
aI70
aI40
aI61
aa(lp530
I22
aI13
aI12
aI92
aI63
aI49
aI70
aI65
aI41
aI89
aI61
aI39
aI47
aI37
aI8
aI68
aI69
aI25
aI46
aI21
aa(lp531
I41
aI93
aI28
aI88
aI92
aI11
aI56
aI98
aI23
aI83
aI48
aI1
aI45
aI25
aI42
aI7
aI75
aI21
aI12
aI82
aa(lp532
I38
aI92
aI66
aI48
aI36
aI8
aI50
aI31
aI94
aI83
aI23
aI71
aI58
aI59
aI61
aI45
aI42
aI10
aI97
aI74
aa(lp533
I73
aI79
aI97
aI81
aI80
aI37
aI26
aI95
aI29
aI27
aI51
aI74
aI83
aI67
aI18
aI4
aI90
aI72
aI53
aI84
aa(lp534
I34
aI56
aI4
aI43
aI38
aI25
aI82
aI87
aI19
aI32
aI7
aI78
aI59
aI12
aI72
aI20
aI90
aI84
aI75
aI14
aa(lp535
I20
aI49
aI85
aI8
aI33
aI65
aI89
aI16
aI10
aI81
aI71
aI93
aI12
aI63
aI61
aI88
aI7
aI68
aI46
aI97
aa(lp536
I4
aI39
aI61
aI76
aI89
aI44
aI42
aI69
aI51
aI88
aI47
aI33
aI38
aI28
aI81
aI96
aI36
aI27
aI25
aI68
aa(lp537
I81
aI12
aI37
aI13
aI5
aI85
aI2
aI82
aI34
aI55
aI48
aI97
aI54
aI53
aI11
aI67
aI88
aI74
aI58
aI17
aa(lp538
I11
aI74
aI55
aI34
aI75
aI58
aI71
aI40
aI38
aI7
aI97
aI72
aI92
aI77
aI59
aI95
aI30
aI93
aI31
aI16
aa(lp539
I59
aI57
aI98
aI84
aI9
aI86
aI8
aI58
aI35
aI89
aI38
aI73
aI11
aI23
aI48
aI56
aI4
aI64
aI0
aI13
aa(lp540
I79
aI20
aI50
aI86
aI13
aI46
aI73
aI93
aI66
aI82
aI49
aI47
aI22
aI8
aI38
aI23
aI62
aI27
aI70
aI52
aa(lp541
I92
aI87
aI18
aI52
aI83
aI30
aI56
aI88
aI38
aI25
aI90
aI63
aI41
aI0
aI22
aI45
aI2
aI17
aI79
aI66
aa(lp542
I76
aI18
aI27
aI95
aI54
aI66
aI2
aI7
aI91
aI45
aI8
aI19
aI93
aI48
aI71
aI73
aI25
aI82
aI16
aI83
aa(lp543
I15
aI87
aI42
aI64
aI21
aI39
aI19
aI78
aI33
aI69
aI66
aI32
aI70
aI89
aI29
aI50
aI59
aI55
aI51
aI8
aa(lp544
I75
aI9
aI97
aI1
aI91
aI38
aI48
aI22
aI0
aI66
aI29
aI3
aI25
aI50
aI32
aI86
aI28
aI73
aI47
aI69
aa(lp545
I5
aI22
aI58
aI66
aI28
aI1
aI61
aI11
aI35
aI63
aI51
aI17
aI71
aI76
aI79
aI82
aI75
aI48
aI40
aI69
aa(lp546
I22
aI83
aI8
aI67
aI28
aI32
aI12
aI43
aI9
aI27
aI85
aI21
aI0
aI1
aI50
aI81
aI82
aI6
aI60
aI46
aa(lp547
I47
aI60
aI23
aI22
aI96
aI75
aI6
aI36
aI32
aI61
aI90
aI94
aI17
aI31
aI44
aI49
aI58
aI69
aI38
aI72
aa(lp548
I60
aI92
aI59
aI13
aI85
aI40
aI51
aI52
aI66
aI50
aI20
aI27
aI75
aI17
aI71
aI30
aI74
aI97
aI5
aI2
aa(lp549
I60
aI37
aI89
aI6
aI81
aI38
aI20
aI18
aI48
aI85
aI80
aI17
aI32
aI28
aI58
aI82
aI68
aI35
aI91
aI66
aa(lp550
I18
aI51
aI68
aI82
aI64
aI87
aI7
aI46
aI11
aI71
aI88
aI49
aI94
aI53
aI55
aI95
aI16
aI61
aI9
aI22
aa(lp551
I24
aI93
aI32
aI79
aI44
aI54
aI21
aI16
aI39
aI46
aI33
aI67
aI55
aI78
aI17
aI84
aI58
aI26
aI3
aI69
aa(lp552
I22
aI59
aI15
aI4
aI10
aI90
aI5
aI48
aI52
aI41
aI40
aI39
aI27
aI73
aI93
aI44
aI24
aI28
aI92
aI86
aa(lp553
I65
aI29
aI74
aI10
aI21
aI64
aI97
aI69
aI39
aI86
aI7
aI3
aI56
aI85
aI75
aI50
aI32
aI38
aI84
aI70
aa(lp554
I25
aI34
aI76
aI32
aI54
aI74
aI86
aI52
aI56
aI59
aI22
aI41
aI27
aI61
aI58
aI17
aI70
aI92
aI48
aI79
aa(lp555
I8
aI19
aI94
aI18
aI60
aI13
aI12
aI66
aI23
aI24
aI33
aI47
aI73
aI98
aI30
aI95
aI42
aI85
aI37
aI25
aa(lp556
I45
aI25
aI40
aI71
aI53
aI65
aI76
aI70
aI68
aI38
aI62
aI91
aI19
aI20
aI57
aI89
aI22
aI60
aI69
aI31
aa(lp557
I19
aI41
aI9
aI57
aI32
aI24
aI13
aI88
aI38
aI84
aI35
aI2
aI36
aI14
aI25
aI53
aI81
aI82
aI91
aI56
aa(lp558
I23
aI25
aI72
aI31
aI60
aI98
aI59
aI84
aI75
aI17
aI57
aI71
aI49
aI6
aI41
aI48
aI18
aI76
aI30
aI74
aa(lp559
I31
aI60
aI14
aI76
aI78
aI40
aI5
aI65
aI64
aI17
aI98
aI22
aI57
aI72
aI32
aI4
aI67
aI88
aI74
aI51
aa(lp560
I68
aI64
aI31
aI43
aI60
aI11
aI35
aI98
aI21
aI24
aI88
aI2
aI93
aI91
aI65
aI41
aI44
aI5
aI72
aI6
aa(lp561
I94
aI66
aI56
aI58
aI21
aI43
aI29
aI1
aI50
aI98
aI45
aI18
aI76
aI46
aI57
aI25
aI23
aI35
aI2
aI20
aa(lp562
I84
aI67
aI7
aI42
aI65
aI28
aI25
aI81
aI37
aI8
aI74
aI39
aI70
aI95
aI73
aI47
aI60
aI56
aI48
aI92
aa(lp563
I36
aI90
aI77
aI76
aI24
aI62
aI95
aI8
aI50
aI52
aI11
aI82
aI86
aI47
aI16
aI57
aI9
aI89
aI42
aI49
aa(lp564
I25
aI94
aI61
aI74
aI3
aI10
aI31
aI13
aI46
aI36
aI97
aI80
aI44
aI19
aI81
aI66
aI23
aI82
aI22
aI59
aa(lp565
I95
aI56
aI67
aI60
aI72
aI13
aI5
aI63
aI52
aI33
aI66
aI57
aI24
aI51
aI83
aI98
aI16
aI88
aI3
aI29
aa(lp566
I26
aI70
aI15
aI77
aI25
aI96
aI42
aI30
aI43
aI57
aI33
aI16
aI40
aI36
aI88
aI72
aI54
aI20
aI68
aI56
aa(lp567
I96
aI12
aI45
aI56
aI8
aI80
aI95
aI84
aI65
aI22
aI25
aI19
aI72
aI40
aI6
aI14
aI16
aI24
aI52
aI68
aa(lp568
I92
aI20
aI37
aI86
aI87
aI44
aI36
aI69
aI11
aI19
aI93
aI77
aI85
aI1
aI54
aI80
aI95
aI0
aI13
aI97
aa(lp569
I37
aI27
aI81
aI26
aI92
aI42
aI36
aI44
aI23
aI80
aI52
aI72
aI1
aI13
aI54
aI89
aI94
aI24
aI4
aI87
aa(lp570
I93
aI1
aI43
aI51
aI44
aI98
aI60
aI76
aI31
aI64
aI74
aI89
aI92
aI4
aI73
aI39
aI24
aI95
aI97
aI12
aa(lp571
I27
aI48
aI31
aI51
aI95
aI29
aI24
aI17
aI81
aI98
aI57
aI18
aI34
aI37
aI73
aI93
aI91
aI79
aI84
aI56
aa(lp572
I87
aI98
aI1
aI14
aI51
aI74
aI78
aI59
aI25
aI73
aI15
aI85
aI84
aI32
aI57
aI4
aI86
aI40
aI80
aI63
aa(lp573
I7
aI67
aI87
aI56
aI76
aI55
aI27
aI29
aI47
aI44
aI65
aI4
aI17
aI83
aI20
aI24
aI93
aI58
aI61
aI34
aa(lp574
I97
aI81
aI45
aI82
aI87
aI71
aI48
aI91
aI47
aI16
aI65
aI13
aI83
aI41
aI25
aI78
aI54
aI76
aI15
aI38
aa(lp575
I5
aI16
aI39
aI84
aI0
aI60
aI98
aI58
aI88
aI97
aI2
aI77
aI42
aI8
aI31
aI78
aI53
aI56
aI24
aI51
aa(lp576
I58
aI15
aI0
aI34
aI55
aI67
aI72
aI74
aI3
aI90
aI54
aI30
aI2
aI20
aI49
aI52
aI6
aI97
aI59
aI61
aa(lp577
I81
aI31
aI36
aI51
aI10
aI42
aI23
aI46
aI49
aI63
aI25
aI24
aI16
aI29
aI65
aI79
aI61
aI87
aI93
aI32
aa(lp578
I89
aI4
aI56
aI58
aI15
aI95
aI94
aI63
aI84
aI32
aI25
aI35
aI12
aI45
aI44
aI78
aI20
aI47
aI46
aI49
aa(lp579
I59
aI43
aI66
aI88
aI7
aI58
aI69
aI57
aI68
aI21
aI97
aI49
aI78
aI10
aI46
aI72
aI60
aI75
aI4
aI38
aa(lp580
I52
aI48
aI22
aI42
aI11
aI12
aI16
aI43
aI65
aI92
aI9
aI45
aI46
aI81
aI74
aI86
aI1
aI17
aI5
aI78
aa(lp581
I64
aI98
aI75
aI27
aI17
aI14
aI8
aI19
aI76
aI10
aI58
aI9
aI11
aI54
aI22
aI42
aI25
aI66
aI26
aI63
aa(lp582
I36
aI14
aI58
aI51
aI12
aI25
aI21
aI9
aI59
aI47
aI63
aI89
aI37
aI92
aI83
aI3
aI75
aI57
aI34
aI69
aa(lp583
I10
aI83
aI55
aI86
aI60
aI53
aI52
aI23
aI33
aI97
aI54
aI3
aI50
aI91
aI27
aI98
aI5
aI57
aI58
aI80
aa(lp584
I95
aI3
aI92
aI16
aI20
aI72
aI68
aI87
aI69
aI39
aI19
aI36
aI28
aI22
aI11
aI60
aI59
aI56
aI12
aI73
aa(lp585
I91
aI15
aI75
aI53
aI29
aI71
aI72
aI0
aI87
aI41
aI94
aI12
aI52
aI65
aI6
aI46
aI76
aI18
aI47
aI62
aa(lp586
I45
aI24
aI6
aI2
aI81
aI41
aI32
aI82
aI3
aI90
aI21
aI61
aI91
aI77
aI49
aI71
aI78
aI74
aI59
aI23
aa(lp587
I85
aI77
aI97
aI71
aI55
aI35
aI84
aI78
aI30
aI94
aI34
aI5
aI81
aI11
aI46
aI27
aI67
aI15
aI17
aI14
aa(lp588
I12
aI32
aI18
aI17
aI87
aI1
aI37
aI51
aI43
aI8
aI50
aI63
aI16
aI13
aI68
aI59
aI41
aI71
aI61
aI22
aa(lp589
I45
aI41
aI18
aI93
aI64
aI9
aI85
aI32
aI71
aI96
aI22
aI49
aI16
aI98
aI75
aI38
aI2
aI72
aI19
aI59
aa(lp590
I33
aI9
aI75
aI38
aI94
aI36
aI19
aI40
aI93
aI98
aI88
aI23
aI48
aI91
aI24
aI22
aI46
aI62
aI13
aI5
aa(lp591
I9
aI35
aI63
aI96
aI32
aI45
aI27
aI55
aI30
aI40
aI36
aI81
aI77
aI62
aI98
aI37
aI60
aI29
aI43
aI74
aa(lp592
I91
aI21
aI78
aI73
aI85
aI96
aI93
aI2
aI38
aI7
aI97
aI65
aI46
aI56
aI23
aI1
aI45
aI75
aI71
aI48
aa(lp593
I70
aI76
aI43
aI31
aI48
aI82
aI5
aI95
aI17
aI18
aI33
aI79
aI27
aI25
aI34
aI84
aI24
aI12
aI54
aI67
aa(lp594
I75
aI66
aI33
aI53
aI8
aI12
aI26
aI23
aI88
aI69
aI93
aI41
aI9
aI15
aI6
aI56
aI78
aI19
aI60
aI71
aa(lp595
I57
aI37
aI70
aI22
aI40
aI71
aI68
aI50
aI81
aI89
aI56
aI64
aI48
aI18
aI27
aI92
aI85
aI6
aI31
aI54
aa(lp596
I53
aI6
aI57
aI41
aI29
aI45
aI62
aI86
aI90
aI18
aI21
aI49
aI22
aI16
aI40
aI69
aI95
aI38
aI98
aI25
aa(lp597
I64
aI25
aI35
aI45
aI83
aI38
aI76
aI7
aI56
aI54
aI66
aI34
aI70
aI17
aI27
aI86
aI10
aI67
aI71
aI19
aa(lp598
I17
aI18
aI60
aI55
aI98
aI67
aI7
aI52
aI63
aI36
aI9
aI94
aI89
aI78
aI26
aI25
aI81
aI71
aI56
aI27
aa(lp599
I70
aI41
aI88
aI37
aI51
aI24
aI80
aI9
aI15
aI85
aI27
aI17
aI28
aI96
aI33
aI23
aI56
aI98
aI69
aI76
aa(lp600
I40
aI33
aI49
aI29
aI44
aI58
aI52
aI84
aI48
aI46
aI1
aI83
aI94
aI79
aI59
aI97
aI54
aI72
aI62
aI4
aa(lp601
I76
aI48
aI12
aI91
aI27
aI78
aI86
aI57
aI34
aI15
aI56
aI39
aI68
aI95
aI67
aI8
aI20
aI83
aI60
aI45
aa(lp602
I80
aI4
aI96
aI58
aI20
aI26
aI2
aI23
aI98
aI21
aI72
aI30
aI11
aI9
aI51
aI75
aI70
aI8
aI83
aI50
aa(lp603
I7
aI12
aI82
aI68
aI79
aI46
aI81
aI67
aI39
aI80
aI96
aI83
aI3
aI73
aI29
aI49
aI10
aI24
aI23
aI30
aa(lp604
I6
aI86
aI62
aI18
aI8
aI13
aI47
aI42
aI56
aI51
aI66
aI54
aI50
aI87
aI41
aI53
aI64
aI59
aI1
aI23
aa(lp605
I43
aI19
aI5
aI1
aI80
aI78
aI74
aI95
aI66
aI25
aI90
aI59
aI75
aI81
aI15
aI36
aI96
aI76
aI52
aI53
aa(lp606
I50
aI88
aI5
aI80
aI95
aI19
aI18
aI29
aI69
aI78
aI87
aI54
aI79
aI73
aI32
aI77
aI51
aI42
aI89
aI43
aa(lp607
I52
aI21
aI90
aI48
aI22
aI66
aI16
aI83
aI15
aI47
aI6
aI43
aI85
aI89
aI92
aI29
aI49
aI1
aI60
aI23
aa(lp608
I21
aI58
aI64
aI52
aI6
aI70
aI96
aI72
aI63
aI8
aI0
aI34
aI37
aI38
aI94
aI47
aI76
aI46
aI5
aI14
aa(lp609
I58
aI75
aI38
aI28
aI29
aI8
aI91
aI6
aI51
aI42
aI37
aI47
aI54
aI86
aI80
aI21
aI69
aI52
aI2
aI1
aa(lp610
I94
aI6
aI15
aI4
aI7
aI22
aI53
aI73
aI28
aI69
aI16
aI18
aI91
aI49
aI82
aI23
aI54
aI75
aI31
aI97
aa(lp611
I14
aI3
aI50
aI80
aI83
aI65
aI12
aI19
aI95
aI78
aI74
aI56
aI77
aI31
aI44
aI5
aI34
aI91
aI87
aI58
aa(lp612
I9
aI32
aI6
aI41
aI52
aI7
aI90
aI43
aI35
aI59
aI49
aI50
aI97
aI1
aI60
aI25
aI78
aI31
aI61
aI80
aa(lp613
I0
aI88
aI66
aI50
aI5
aI68
aI89
aI74
aI79
aI60
aI46
aI41
aI8
aI27
aI77
aI30
aI25
aI21
aI32
aI42
aa(lp614
I81
aI55
aI83
aI69
aI88
aI86
aI56
aI60
aI45
aI0
aI46
aI17
aI20
aI14
aI78
aI92
aI44
aI58
aI79
aI64
aa(lp615
I61
aI55
aI18
aI90
aI66
aI34
aI56
aI93
aI25
aI63
aI35
aI11
aI20
aI54
aI58
aI29
aI21
aI13
aI31
aI19
aa(lp616
I93
aI3
aI40
aI47
aI12
aI29
aI7
aI28
aI83
aI27
aI66
aI63
aI10
aI52
aI33
aI72
aI1
aI6
aI0
aI74
aa(lp617
I37
aI22
aI10
aI71
aI79
aI58
aI50
aI7
aI90
aI96
aI21
aI41
aI69
aI68
aI43
aI20
aI44
aI25
aI93
aI57
aa(lp618
I44
aI93
aI88
aI52
aI66
aI56
aI22
aI15
aI74
aI45
aI55
aI90
aI47
aI23
aI31
aI61
aI38
aI67
aI75
aI87
aa(lp619
I60
aI16
aI45
aI80
aI40
aI58
aI10
aI17
aI43
aI46
aI74
aI83
aI71
aI93
aI57
aI94
aI68
aI66
aI63
aI54
aa(lp620
I82
aI20
aI42
aI13
aI95
aI96
aI81
aI80
aI54
aI10
aI69
aI28
aI17
aI24
aI85
aI6
aI60
aI52
aI65
aI50
aa(lp621
I60
aI14
aI94
aI12
aI73
aI1
aI72
aI77
aI2
aI84
aI96
aI7
aI47
aI64
aI92
aI20
aI68
aI65
aI52
aI42
aa(lp622
I61
aI33
aI13
aI74
aI14
aI55
aI15
aI94
aI62
aI65
aI4
aI53
aI66
aI21
aI11
aI88
aI49
aI83
aI81
aI27
aa(lp623
I31
aI54
aI43
aI90
aI96
aI29
aI93
aI36
aI72
aI5
aI32
aI41
aI57
aI62
aI49
aI42
aI97
aI84
aI56
aI23
aa(lp624
I44
aI73
aI69
aI15
aI13
aI97
aI81
aI91
aI23
aI2
aI88
aI89
aI58
aI34
aI95
aI77
aI94
aI5
aI93
aI46
aa(lp625
I51
aI88
aI63
aI10
aI30
aI53
aI9
aI85
aI75
aI48
aI80
aI59
aI26
aI56
aI39
aI89
aI72
aI28
aI2
aI19
aa(lp626
I44
aI82
aI27
aI95
aI89
aI55
aI15
aI1
aI13
aI6
aI38
aI93
aI94
aI40
aI17
aI79
aI3
aI20
aI67
aI61
aa(lp627
I56
aI40
aI14
aI1
aI67
aI46
aI10
aI51
aI62
aI41
aI59
aI9
aI68
aI89
aI48
aI15
aI54
aI21
aI95
aI44
aa(lp628
I79
aI24
aI54
aI53
aI35
aI4
aI87
aI31
aI95
aI2
aI0
aI78
aI15
aI74
aI3
aI32
aI20
aI39
aI52
aI5
aa(lp629
I30
aI18
aI78
aI29
aI22
aI6
aI61
aI40
aI38
aI15
aI68
aI12
aI54
aI23
aI62
aI82
aI88
aI69
aI55
aI17
aa(lp630
I84
aI0
aI98
aI77
aI3
aI71
aI19
aI65
aI6
aI17
aI75
aI50
aI87
aI21
aI96
aI44
aI49
aI13
aI89
aI47
aa(lp631
I37
aI63
aI98
aI28
aI81
aI54
aI83
aI21
aI61
aI77
aI31
aI50
aI3
aI90
aI6
aI82
aI65
aI79
aI10
aI27
aa(lp632
I47
aI93
aI61
aI22
aI58
aI12
aI95
aI60
aI81
aI55
aI73
aI51
aI5
aI92
aI1
aI14
aI17
aI96
aI0
aI39
aa(lp633
I82
aI66
aI87
aI6
aI22
aI18
aI63
aI23
aI32
aI70
aI84
aI15
aI35
aI14
aI67
aI86
aI12
aI62
aI42
aI83
aa(lp634
I72
aI63
aI73
aI42
aI89
aI92
aI83
aI84
aI23
aI15
aI13
aI57
aI64
aI14
aI48
aI21
aI41
aI20
aI70
aI40
aa(lp635
I57
aI59
aI56
aI40
aI25
aI7
aI42
aI1
aI48
aI39
aI24
aI47
aI51
aI78
aI13
aI84
aI61
aI55
aI10
aI71
aa(lp636
I86
aI75
aI6
aI10
aI88
aI35
aI73
aI71
aI52
aI16
aI17
aI29
aI98
aI18
aI54
aI87
aI84
aI74
aI59
aI26
aa(lp637
I44
aI37
aI78
aI12
aI16
aI53
aI80
aI86
aI9
aI31
aI32
aI4
aI1
aI13
aI96
aI11
aI48
aI95
aI5
aI84
aa(lp638
I55
aI21
aI90
aI91
aI79
aI63
aI60
aI45
aI29
aI10
aI30
aI43
aI37
aI38
aI27
aI7
aI13
aI64
aI3
aI39
aa(lp639
I9
aI91
aI59
aI32
aI10
aI48
aI79
aI44
aI97
aI72
aI42
aI94
aI22
aI12
aI95
aI38
aI74
aI71
aI86
aI28
aa(lp640
I47
aI15
aI82
aI7
aI60
aI75
aI23
aI79
aI14
aI6
aI25
aI33
aI80
aI41
aI78
aI57
aI4
aI85
aI34
aI5
aa(lp641
I10
aI84
aI44
aI78
aI90
aI54
aI22
aI31
aI73
aI57
aI42
aI38
aI62
aI11
aI66
aI85
aI58
aI81
aI3
aI30
aa(lp642
I25
aI83
aI35
aI15
aI9
aI97
aI74
aI0
aI75
aI92
aI95
aI26
aI14
aI82
aI90
aI10
aI39
aI20
aI22
aI5
aa(lp643
I47
aI12
aI87
aI80
aI67
aI83
aI22
aI97
aI92
aI79
aI29
aI37
aI69
aI50
aI60
aI41
aI98
aI7
aI52
aI23
aa(lp644
I43
aI86
aI97
aI42
aI79
aI87
aI70
aI32
aI74
aI49
aI38
aI39
aI7
aI4
aI58
aI9
aI5
aI25
aI26
aI8
aa(lp645
I85
aI3
aI33
aI6
aI78
aI31
aI21
aI68
aI92
aI23
aI94
aI28
aI86
aI41
aI19
aI35
aI71
aI77
aI20
aI42
aa(lp646
I46
aI83
aI33
aI24
aI72
aI14
aI84
aI31
aI42
aI48
aI17
aI23
aI30
aI34
aI77
aI41
aI97
aI20
aI37
aI82
aa(lp647
I75
aI92
aI78
aI30
aI96
aI2
aI15
aI24
aI43
aI54
aI58
aI68
aI3
aI86
aI57
aI1
aI84
aI11
aI56
aI81
aa(lp648
I88
aI68
aI83
aI25
aI29
aI47
aI45
aI7
aI77
aI75
aI12
aI0
aI34
aI9
aI51
aI97
aI66
aI49
aI87
aI14
aa(lp649
I92
aI50
aI98
aI55
aI81
aI83
aI62
aI80
aI78
aI45
aI63
aI88
aI91
aI74
aI15
aI35
aI48
aI61
aI87
aI24
aa(lp650
I60
aI0
aI35
aI61
aI20
aI56
aI44
aI55
aI14
aI66
aI1
aI90
aI5
aI72
aI52
aI53
aI41
aI17
aI96
aI12
aa(lp651
I43
aI41
aI13
aI90
aI12
aI66
aI72
aI52
aI10
aI28
aI14
aI62
aI42
aI36
aI34
aI85
aI92
aI98
aI82
aI77
aa(lp652
I39
aI60
aI64
aI72
aI74
aI31
aI16
aI4
aI5
aI23
aI46
aI71
aI85
aI44
aI32
aI79
aI43
aI49
aI56
aI14
aa(lp653
I52
aI57
aI76
aI98
aI5
aI43
aI70
aI85
aI56
aI87
aI80
aI19
aI10
aI17
aI33
aI54
aI48
aI1
aI86
aI22
aa(lp654
I4
aI20
aI5
aI17
aI75
aI98
aI31
aI25
aI7
aI2
aI50
aI80
aI69
aI70
aI78
aI10
aI91
aI44
aI82
aI14
aa(lp655
I70
aI21
aI23
aI12
aI19
aI26
aI29
aI17
aI97
aI28
aI59
aI31
aI69
aI58
aI61
aI34
aI18
aI3
aI83
aI95
aa(lp656
I45
aI76
aI87
aI41
aI13
aI82
aI5
aI59
aI71
aI33
aI63
aI7
aI35
aI21
aI69
aI42
aI28
aI67
aI60
aI29
aa(lp657
I83
aI75
aI52
aI92
aI35
aI94
aI56
aI71
aI74
aI16
aI31
aI78
aI77
aI80
aI61
aI79
aI50
aI53
aI22
aI19
aa(lp658
I19
aI22
aI25
aI91
aI76
aI75
aI80
aI23
aI12
aI65
aI53
aI89
aI1
aI88
aI40
aI98
aI29
aI30
aI63
aI7
aa(lp659
I36
aI2
aI42
aI3
aI29
aI32
aI50
aI59
aI26
aI55
aI9
aI45
aI88
aI71
aI35
aI30
aI69
aI21
aI76
aI13
aa(lp660
I49
aI85
aI10
aI35
aI40
aI32
aI19
aI4
aI74
aI0
aI55
aI14
aI56
aI50
aI39
aI21
aI59
aI33
aI13
aI17
aa(lp661
I87
aI1
aI39
aI62
aI5
aI64
aI33
aI65
aI7
aI31
aI86
aI80
aI37
aI59
aI15
aI75
aI40
aI67
aI85
aI73
aa(lp662
I25
aI95
aI34
aI48
aI51
aI96
aI74
aI75
aI41
aI33
aI63
aI37
aI2
aI86
aI77
aI66
aI62
aI44
aI18
aI11
aa(lp663
I73
aI20
aI88
aI84
aI90
aI41
aI85
aI2
aI27
aI19
aI13
aI47
aI7
aI76
aI67
aI5
aI8
aI56
aI64
aI12
aa(lp664
I72
aI86
aI49
aI74
aI78
aI0
aI36
aI56
aI8
aI98
aI46
aI85
aI96
aI11
aI40
aI38
aI80
aI4
aI29
aI82
aa(lp665
I19
aI27
aI98
aI18
aI30
aI62
aI58
aI46
aI96
aI25
aI47
aI66
aI10
aI42
aI77
aI79
aI3
aI43
aI24
aI87
aa(lp666
I70
aI76
aI96
aI43
aI6
aI38
aI80
aI85
aI47
aI94
aI41
aI29
aI98
aI13
aI22
aI1
aI83
aI53
aI58
aI23
aa(lp667
I70
aI41
aI20
aI46
aI36
aI90
aI58
aI97
aI17
aI56
aI45
aI7
aI6
aI54
aI5
aI21
aI39
aI60
aI83
aI88
aa(lp668
I50
aI5
aI86
aI66
aI95
aI93
aI17
aI59
aI96
aI6
aI74
aI75
aI72
aI22
aI21
aI84
aI87
aI7
aI92
aI77
aa(lp669
I9
aI27
aI92
aI30
aI7
aI59
aI29
aI70
aI58
aI66
aI13
aI97
aI57
aI40
aI54
aI50
aI15
aI67
aI18
aI86
aa(lp670
I18
aI42
aI73
aI39
aI84
aI31
aI28
aI98
aI15
aI47
aI50
aI94
aI48
aI54
aI34
aI55
aI79
aI3
aI16
aI57
aa(lp671
I32
aI91
aI94
aI38
aI47
aI70
aI63
aI17
aI66
aI3
aI9
aI51
aI56
aI18
aI74
aI15
aI64
aI71
aI33
aI53
aa(lp672
I6
aI48
aI11
aI49
aI50
aI62
aI59
aI28
aI73
aI91
aI0
aI25
aI80
aI23
aI92
aI4
aI7
aI43
aI97
aI13
aa(lp673
I55
aI61
aI80
aI4
aI79
aI57
aI0
aI20
aI70
aI56
aI27
aI73
aI89
aI3
aI15
aI64
aI92
aI48
aI94
aI60
aa(lp674
I23
aI52
aI41
aI51
aI7
aI60
aI72
aI10
aI70
aI87
aI47
aI26
aI54
aI90
aI96
aI81
aI88
aI34
aI76
aI84
aa(lp675
I60
aI9
aI22
aI61
aI3
aI45
aI72
aI19
aI48
aI42
aI8
aI59
aI56
aI88
aI96
aI62
aI63
aI10
aI32
aI12
aa(lp676
I74
aI61
aI40
aI29
aI41
aI93
aI10
aI60
aI1
aI25
aI65
aI79
aI81
aI52
aI73
aI45
aI92
aI11
aI62
aI42
aa(lp677
I29
aI47
aI70
aI28
aI60
aI83
aI43
aI11
aI71
aI32
aI89
aI90
aI45
aI86
aI50
aI7
aI0
aI41
aI91
aI17
aa(lp678
I75
aI14
aI15
aI38
aI93
aI30
aI25
aI98
aI49
aI33
aI9
aI68
aI96
aI21
aI64
aI8
aI80
aI17
aI2
aI44
aa(lp679
I58
aI82
aI42
aI81
aI3
aI94
aI14
aI71
aI73
aI47
aI7
aI25
aI98
aI18
aI59
aI9
aI83
aI87
aI24
aI91
aa(lp680
I65
aI72
aI47
aI89
aI98
aI61
aI18
aI13
aI68
aI36
aI9
aI54
aI55
aI63
aI6
aI11
aI1
aI40
aI50
aI94
aa(lp681
I96
aI91
aI98
aI51
aI88
aI80
aI58
aI61
aI48
aI24
aI65
aI43
aI63
aI78
aI34
aI54
aI6
aI20
aI84
aI83
aa(lp682
I88
aI13
aI71
aI44
aI36
aI96
aI49
aI80
aI84
aI86
aI91
aI46
aI43
aI22
aI8
aI27
aI38
aI12
aI79
aI6
aa(lp683
I38
aI40
aI23
aI87
aI51
aI44
aI72
aI52
aI62
aI56
aI28
aI81
aI75
aI9
aI10
aI33
aI55
aI61
aI12
aI93
aa(lp684
I63
aI87
aI58
aI4
aI22
aI84
aI35
aI65
aI8
aI14
aI53
aI46
aI25
aI12
aI30
aI15
aI47
aI74
aI18
aI61
aa(lp685
I70
aI62
aI21
aI37
aI60
aI12
aI24
aI50
aI65
aI38
aI41
aI26
aI74
aI16
aI93
aI31
aI42
aI80
aI25
aI54
aa(lp686
I49
aI62
aI51
aI40
aI65
aI90
aI92
aI50
aI67
aI93
aI75
aI94
aI33
aI11
aI82
aI2
aI48
aI86
aI30
aI85
aa(lp687
I29
aI24
aI20
aI22
aI32
aI16
aI98
aI61
aI92
aI7
aI56
aI51
aI59
aI26
aI48
aI34
aI79
aI10
aI19
aI88
aa(lp688
I91
aI68
aI28
aI12
aI11
aI79
aI52
aI90
aI47
aI85
aI38
aI27
aI72
aI74
aI51
aI96
aI89
aI6
aI45
aI70
aa(lp689
I68
aI20
aI10
aI14
aI73
aI63
aI91
aI47
aI67
aI31
aI86
aI40
aI51
aI75
aI29
aI36
aI28
aI93
aI85
aI89
aa(lp690
I54
aI23
aI52
aI88
aI65
aI63
aI1
aI49
aI41
aI17
aI81
aI60
aI93
aI11
aI56
aI43
aI34
aI0
aI16
aI46
aa(lp691
I82
aI63
aI1
aI17
aI50
aI37
aI83
aI75
aI9
aI89
aI64
aI91
aI19
aI15
aI93
aI79
aI57
aI53
aI12
aI56
aa(lp692
I91
aI30
aI83
aI0
aI53
aI60
aI56
aI26
aI22
aI43
aI10
aI25
aI58
aI29
aI85
aI31
aI96
aI61
aI38
aI48
aa(lp693
I62
aI78
aI26
aI65
aI17
aI70
aI33
aI8
aI47
aI81
aI67
aI83
aI25
aI12
aI51
aI0
aI13
aI10
aI34
aI88
aa(lp694
I3
aI88
aI5
aI57
aI10
aI70
aI38
aI4
aI34
aI67
aI93
aI94
aI14
aI64
aI91
aI30
aI15
aI74
aI22
aI63
aa(lp695
I6
aI93
aI70
aI34
aI15
aI52
aI86
aI16
aI62
aI60
aI23
aI33
aI72
aI19
aI4
aI8
aI83
aI20
aI78
aI27
aa(lp696
I16
aI42
aI84
aI24
aI82
aI80
aI83
aI48
aI46
aI26
aI87
aI11
aI9
aI47
aI51
aI59
aI49
aI6
aI37
aI21
aa(lp697
I5
aI75
aI37
aI73
aI9
aI47
aI23
aI53
aI38
aI92
aI40
aI68
aI57
aI11
aI52
aI93
aI58
aI89
aI56
aI84
aa(lp698
I54
aI81
aI40
aI23
aI93
aI90
aI32
aI85
aI37
aI56
aI38
aI57
aI20
aI73
aI6
aI61
aI45
aI4
aI86
aI43
aa(lp699
I53
aI48
aI72
aI85
aI68
aI42
aI12
aI74
aI96
aI83
aI52
aI37
aI22
aI5
aI75
aI36
aI31
aI80
aI59
aI13
aa(lp700
I55
aI14
aI92
aI16
aI38
aI94
aI73
aI15
aI46
aI63
aI2
aI0
aI32
aI70
aI66
aI86
aI7
aI30
aI74
aI41
aa(lp701
I40
aI50
aI97
aI81
aI32
aI23
aI38
aI46
aI28
aI75
aI78
aI47
aI33
aI17
aI83
aI63
aI80
aI70
aI52
aI1
aa(lp702
I3
aI39
aI83
aI40
aI61
aI10
aI89
aI95
aI6
aI14
aI24
aI37
aI91
aI84
aI50
aI69
aI62
aI34
aI97
aI36
aa(lp703
I8
aI2
aI77
aI21
aI1
aI27
aI18
aI43
aI69
aI13
aI58
aI24
aI42
aI65
aI36
aI74
aI11
aI15
aI64
aI94
aa(lp704
I47
aI26
aI77
aI69
aI25
aI59
aI42
aI9
aI29
aI81
aI64
aI80
aI63
aI12
aI4
aI8
aI44
aI33
aI62
aI92
aa(lp705
I72
aI89
aI69
aI50
aI32
aI75
aI3
aI39
aI52
aI18
aI23
aI31
aI28
aI93
aI12
aI78
aI36
aI94
aI25
aI60
aa(lp706
I85
aI36
aI13
aI60
aI10
aI42
aI96
aI0
aI49
aI74
aI39
aI44
aI80
aI33
aI21
aI50
aI65
aI72
aI62
aI18
aa(lp707
I27
aI32
aI88
aI79
aI76
aI59
aI41
aI1
aI42
aI65
aI0
aI11
aI45
aI66
aI12
aI5
aI23
aI50
aI52
aI86
aa(lp708
I6
aI36
aI32
aI62
aI95
aI80
aI50
aI40
aI23
aI89
aI83
aI69
aI2
aI44
aI64
aI85
aI21
aI30
aI7
aI92
aa(lp709
I73
aI52
aI89
aI33
aI20
aI26
aI82
aI67
aI38
aI97
aI0
aI85
aI28
aI29
aI3
aI14
aI40
aI63
aI17
aI92
aa(lp710
I80
aI61
aI35
aI76
aI10
aI60
aI49
aI24
aI0
aI82
aI39
aI23
aI79
aI9
aI86
aI12
aI83
aI17
aI16
aI18
aa(lp711
I92
aI82
aI73
aI80
aI28
aI5
aI22
aI70
aI23
aI67
aI78
aI77
aI33
aI95
aI45
aI29
aI51
aI8
aI37
aI38
aa(lp712
I77
aI95
aI56
aI84
aI68
aI3
aI55
aI25
aI87
aI92
aI5
aI54
aI69
aI62
aI17
aI53
aI34
aI74
aI27
aI79
aa(lp713
I26
aI78
aI62
aI32
aI97
aI10
aI19
aI74
aI17
aI68
aI88
aI73
aI6
aI53
aI59
aI66
aI72
aI2
aI77
aI36
aa(lp714
I76
aI7
aI26
aI97
aI8
aI50
aI72
aI51
aI87
aI29
aI27
aI95
aI81
aI16
aI12
aI15
aI38
aI48
aI39
aI19
aa(lp715
I21
aI86
aI39
aI72
aI29
aI24
aI49
aI93
aI2
aI1
aI79
aI26
aI81
aI8
aI94
aI76
aI23
aI18
aI12
aI28
aa(lp716
I98
aI8
aI79
aI3
aI37
aI56
aI12
aI50
aI47
aI32
aI84
aI89
aI28
aI0
aI94
aI26
aI24
aI2
aI30
aI21
aa(lp717
I44
aI59
aI11
aI78
aI37
aI91
aI53
aI71
aI46
aI12
aI84
aI70
aI94
aI96
aI33
aI4
aI21
aI1
aI73
aI6
aa(lp718
I90
aI16
aI92
aI69
aI78
aI28
aI25
aI8
aI53
aI31
aI63
aI72
aI43
aI30
aI10
aI42
aI34
aI68
aI58
aI56
aa(lp719
I41
aI33
aI32
aI43
aI70
aI12
aI13
aI58
aI61
aI62
aI47
aI77
aI34
aI10
aI29
aI55
aI31
aI23
aI96
aI71
aa(lp720
I58
aI22
aI39
aI49
aI34
aI93
aI33
aI20
aI87
aI26
aI98
aI81
aI29
aI38
aI31
aI90
aI77
aI51
aI95
aI59
aa(lp721
I12
aI13
aI95
aI64
aI46
aI97
aI18
aI53
aI23
aI35
aI31
aI82
aI38
aI39
aI85
aI28
aI48
aI21
aI30
aI51
aa(lp722
I47
aI12
aI89
aI33
aI64
aI30
aI80
aI44
aI17
aI61
aI9
aI26
aI23
aI96
aI91
aI46
aI6
aI72
aI71
aI73
aa(lp723
I1
aI63
aI48
aI98
aI22
aI2
aI81
aI23
aI56
aI80
aI13
aI10
aI92
aI89
aI70
aI41
aI87
aI27
aI39
aI16
aa(lp724
I8
aI17
aI66
aI2
aI62
aI49
aI64
aI51
aI43
aI93
aI97
aI86
aI83
aI29
aI5
aI56
aI23
aI45
aI38
aI26
aa(lp725
I30
aI50
aI78
aI75
aI97
aI16
aI32
aI63
aI49
aI76
aI87
aI64
aI38
aI77
aI70
aI25
aI43
aI24
aI57
aI4
aa(lp726
I1
aI68
aI41
aI11
aI65
aI63
aI40
aI87
aI14
aI35
aI72
aI83
aI17
aI21
aI12
aI43
aI19
aI54
aI5
aI50
aa(lp727
I12
aI34
aI38
aI16
aI96
aI67
aI51
aI9
aI60
aI18
aI73
aI66
aI87
aI97
aI2
aI72
aI3
aI28
aI57
aI89
aa(lp728
I77
aI15
aI67
aI39
aI27
aI70
aI19
aI43
aI13
aI23
aI22
aI97
aI63
aI57
aI36
aI93
aI4
aI55
aI10
aI48
aa(lp729
I23
aI74
aI47
aI60
aI94
aI19
aI81
aI42
aI75
aI87
aI29
aI92
aI2
aI36
aI53
aI96
aI46
aI17
aI37
aI59
aa(lp730
I26
aI98
aI20
aI2
aI67
aI63
aI43
aI47
aI9
aI55
aI12
aI6
aI22
aI73
aI7
aI83
aI19
aI53
aI39
aI72
aa(lp731
I1
aI22
aI34
aI89
aI58
aI56
aI23
aI38
aI19
aI12
aI13
aI8
aI75
aI50
aI11
aI44
aI9
aI27
aI57
aI68
aa(lp732
I66
aI73
aI62
aI72
aI95
aI60
aI82
aI32
aI83
aI51
aI79
aI94
aI56
aI93
aI35
aI75
aI40
aI6
aI17
aI27
aa(lp733
I53
aI59
aI46
aI71
aI41
aI36
aI30
aI63
aI31
aI82
aI34
aI67
aI14
aI40
aI68
aI12
aI50
aI47
aI84
aI54
aa(lp734
I45
aI18
aI67
aI39
aI14
aI78
aI66
aI61
aI65
aI16
aI91
aI27
aI1
aI32
aI47
aI15
aI82
aI22
aI3
aI81
aa(lp735
I20
aI7
aI95
aI98
aI14
aI72
aI43
aI68
aI32
aI16
aI22
aI94
aI67
aI75
aI40
aI80
aI28
aI70
aI61
aI2
aa(lp736
I73
aI14
aI75
aI92
aI88
aI79
aI16
aI61
aI67
aI47
aI85
aI77
aI95
aI0
aI13
aI80
aI2
aI59
aI96
aI12
aa(lp737
I56
aI37
aI85
aI70
aI76
aI86
aI23
aI54
aI84
aI14
aI26
aI12
aI9
aI62
aI11
aI90
aI77
aI71
aI92
aI30
aa(lp738
I75
aI78
aI69
aI90
aI33
aI48
aI61
aI35
aI25
aI47
aI84
aI87
aI62
aI54
aI57
aI20
aI22
aI2
aI68
aI66
aa(lp739
I39
aI93
aI2
aI46
aI27
aI82
aI87
aI30
aI29
aI60
aI33
aI34
aI52
aI12
aI62
aI54
aI35
aI79
aI24
aI43
aa(lp740
I88
aI94
aI67
aI6
aI9
aI87
aI34
aI57
aI20
aI50
aI71
aI48
aI40
aI64
aI66
aI54
aI18
aI12
aI5
aI36
aa(lp741
I36
aI46
aI76
aI52
aI12
aI91
aI25
aI96
aI21
aI75
aI35
aI26
aI24
aI56
aI78
aI63
aI59
aI71
aI68
aI8
aa(lp742
I41
aI3
aI96
aI36
aI78
aI70
aI73
aI50
aI20
aI21
aI28
aI64
aI26
aI23
aI14
aI32
aI53
aI83
aI54
aI16
aa(lp743
I52
aI85
aI9
aI47
aI72
aI17
aI70
aI79
aI62
aI56
aI13
aI18
aI32
aI12
aI4
aI77
aI6
aI11
aI43
aI46
aa(lp744
I59
aI77
aI20
aI84
aI35
aI32
aI66
aI83
aI98
aI47
aI25
aI93
aI82
aI69
aI19
aI44
aI4
aI2
aI89
aI12
aa(lp745
I64
aI33
aI19
aI45
aI32
aI24
aI18
aI82
aI42
aI92
aI80
aI83
aI22
aI75
aI4
aI25
aI57
aI95
aI50
aI13
aa(lp746
I94
aI74
aI45
aI6
aI91
aI49
aI11
aI80
aI84
aI59
aI41
aI50
aI38
aI20
aI75
aI67
aI23
aI15
aI33
aI53
aa(lp747
I39
aI23
aI15
aI37
aI66
aI44
aI33
aI24
aI56
aI64
aI93
aI10
aI52
aI84
aI78
aI28
aI47
aI21
aI31
aI59
aa(lp748
I9
aI0
aI94
aI91
aI23
aI85
aI7
aI83
aI3
aI87
aI67
aI33
aI38
aI65
aI62
aI88
aI31
aI95
aI32
aI1
aa(lp749
I35
aI93
aI80
aI76
aI67
aI50
aI37
aI38
aI60
aI83
aI91
aI44
aI52
aI77
aI6
aI68
aI1
aI69
aI55
aI12
aa(lp750
I62
aI87
aI41
aI16
aI67
aI85
aI43
aI15
aI29
aI21
aI46
aI3
aI53
aI30
aI65
aI11
aI59
aI10
aI88
aI92
aa(lp751
I34
aI22
aI81
aI75
aI68
aI78
aI1
aI95
aI20
aI86
aI12
aI33
aI7
aI94
aI87
aI62
aI63
aI17
aI48
aI36
aa(lp752
I92
aI28
aI72
aI31
aI91
aI64
aI30
aI59
aI78
aI6
aI48
aI58
aI61
aI44
aI94
aI50
aI2
aI3
aI75
aI74
aa(lp753
I66
aI3
aI64
aI73
aI20
aI74
aI79
aI98
aI25
aI42
aI80
aI84
aI56
aI12
aI91
aI85
aI39
aI43
aI14
aI93
aa(lp754
I52
aI12
aI16
aI32
aI23
aI38
aI15
aI74
aI24
aI89
aI77
aI13
aI78
aI53
aI20
aI21
aI36
aI3
aI95
aI96
aa(lp755
I27
aI81
aI28
aI60
aI40
aI20
aI33
aI82
aI89
aI14
aI42
aI85
aI92
aI34
aI67
aI53
aI83
aI68
aI35
aI49
aa(lp756
I69
aI29
aI66
aI1
aI19
aI54
aI88
aI15
aI21
aI40
aI14
aI6
aI55
aI63
aI3
aI57
aI83
aI41
aI91
aI45
aa(lp757
I21
aI51
aI42
aI14
aI71
aI57
aI82
aI94
aI8
aI76
aI69
aI93
aI10
aI3
aI53
aI59
aI37
aI48
aI98
aI23
aa(lp758
I54
aI98
aI44
aI53
aI88
aI81
aI19
aI11
aI64
aI55
aI87
aI2
aI10
aI14
aI25
aI45
aI40
aI65
aI77
aI50
aa(lp759
I21
aI49
aI96
aI83
aI1
aI41
aI2
aI5
aI29
aI37
aI31
aI90
aI57
aI55
aI48
aI97
aI64
aI24
aI6
aI59
aa(lp760
I36
aI40
aI68
aI15
aI25
aI4
aI78
aI92
aI44
aI87
aI16
aI64
aI1
aI74
aI22
aI2
aI45
aI55
aI72
aI29
aa(lp761
I67
aI27
aI48
aI25
aI56
aI39
aI93
aI85
aI26
aI21
aI35
aI16
aI45
aI57
aI54
aI41
aI38
aI44
aI61
aI94
aa(lp762
I32
aI38
aI44
aI23
aI62
aI82
aI74
aI79
aI6
aI92
aI4
aI37
aI94
aI51
aI34
aI81
aI19
aI60
aI98
aI7
aa(lp763
I54
aI15
aI22
aI92
aI38
aI65
aI58
aI42
aI89
aI18
aI35
aI28
aI55
aI8
aI0
aI69
aI39
aI93
aI4
aI52
aa(lp764
I83
aI52
aI80
aI96
aI23
aI65
aI98
aI82
aI3
aI97
aI90
aI53
aI32
aI89
aI37
aI24
aI84
aI25
aI39
aI68
aa(lp765
I16
aI44
aI95
aI82
aI7
aI64
aI22
aI90
aI48
aI37
aI30
aI83
aI43
aI31
aI47
aI8
aI93
aI58
aI21
aI94
aa(lp766
I47
aI53
aI8
aI73
aI75
aI3
aI87
aI15
aI94
aI67
aI83
aI74
aI71
aI82
aI62
aI92
aI95
aI20
aI84
aI39
aa(lp767
I13
aI22
aI54
aI4
aI76
aI12
aI96
aI92
aI83
aI24
aI45
aI1
aI9
aI97
aI60
aI33
aI34
aI93
aI29
aI80
aa(lp768
I33
aI70
aI89
aI72
aI24
aI38
aI53
aI49
aI86
aI79
aI46
aI77
aI59
aI52
aI91
aI40
aI34
aI55
aI71
aI51
aa(lp769
I32
aI20
aI49
aI3
aI59
aI57
aI87
aI19
aI39
aI89
aI61
aI97
aI46
aI35
aI24
aI79
aI78
aI2
aI75
aI93
aa(lp770
I59
aI33
aI49
aI7
aI77
aI79
aI78
aI19
aI20
aI61
aI94
aI98
aI90
aI53
aI12
aI97
aI83
aI64
aI47
aI80
aa(lp771
I31
aI25
aI92
aI15
aI50
aI81
aI80
aI22
aI68
aI35
aI89
aI48
aI83
aI6
aI82
aI94
aI28
aI45
aI71
aI26
aa(lp772
I43
aI2
aI81
aI37
aI29
aI46
aI72
aI58
aI40
aI91
aI66
aI97
aI80
aI30
aI93
aI86
aI36
aI33
aI85
aI74
aa(lp773
I4
aI60
aI65
aI77
aI79
aI83
aI27
aI88
aI3
aI2
aI20
aI30
aI40
aI35
aI26
aI82
aI80
aI15
aI84
aI11
aa(lp774
I35
aI84
aI87
aI94
aI44
aI98
aI57
aI81
aI3
aI15
aI7
aI11
aI97
aI8
aI37
aI63
aI73
aI62
aI55
aI30
aa(lp775
I3
aI71
aI49
aI11
aI29
aI28
aI21
aI42
aI23
aI6
aI15
aI96
aI54
aI84
aI74
aI98
aI92
aI38
aI45
aI39
aa(lp776
I45
aI37
aI53
aI42
aI35
aI38
aI48
aI96
aI36
aI70
aI32
aI80
aI14
aI18
aI41
aI31
aI55
aI26
aI22
aI63
aa(lp777
I32
aI92
aI40
aI17
aI20
aI15
aI82
aI18
aI13
aI80
aI70
aI66
aI75
aI71
aI2
aI86
aI68
aI34
aI89
aI51
aa(lp778
I17
aI32
aI74
aI13
aI33
aI42
aI82
aI97
aI68
aI65
aI83
aI1
aI28
aI54
aI79
aI64
aI67
aI76
aI71
aI25
aa(lp779
I83
aI53
aI68
aI45
aI13
aI80
aI15
aI77
aI5
aI23
aI72
aI88
aI62
aI79
aI35
aI84
aI30
aI47
aI46
aI0
aa(lp780
I0
aI58
aI6
aI10
aI98
aI23
aI63
aI50
aI64
aI92
aI65
aI54
aI20
aI71
aI60
aI52
aI66
aI84
aI9
aI31
aa(lp781
I59
aI18
aI66
aI40
aI22
aI79
aI19
aI26
aI54
aI86
aI96
aI0
aI47
aI67
aI16
aI48
aI24
aI31
aI44
aI91
aa(lp782
I67
aI58
aI3
aI47
aI50
aI10
aI86
aI94
aI12
aI1
aI41
aI4
aI30
aI59
aI20
aI31
aI79
aI55
aI32
aI69
aa(lp783
I53
aI90
aI3
aI95
aI35
aI86
aI58
aI0
aI7
aI52
aI16
aI77
aI50
aI76
aI92
aI83
aI15
aI40
aI96
aI84
aa(lp784
I97
aI17
aI90
aI32
aI45
aI63
aI65
aI50
aI3
aI30
aI9
aI22
aI89
aI28
aI33
aI38
aI20
aI72
aI76
aI59
aa(lp785
I78
aI31
aI90
aI23
aI68
aI93
aI22
aI50
aI46
aI34
aI39
aI73
aI52
aI94
aI89
aI18
aI44
aI37
aI15
aI98
aa(lp786
I83
aI56
aI37
aI73
aI30
aI12
aI98
aI15
aI97
aI0
aI52
aI90
aI1
aI49
aI27
aI22
aI24
aI32
aI95
aI60
aa(lp787
I39
aI63
aI65
aI12
aI69
aI88
aI30
aI78
aI10
aI33
aI70
aI34
aI37
aI58
aI22
aI61
aI57
aI89
aI52
aI81
aa(lp788
I81
aI76
aI15
aI57
aI20
aI98
aI78
aI50
aI40
aI58
aI59
aI43
aI26
aI32
aI94
aI24
aI14
aI25
aI36
aI61
aa(lp789
I3
aI43
aI60
aI66
aI94
aI85
aI86
aI83
aI61
aI74
aI67
aI1
aI91
aI63
aI9
aI49
aI32
aI73
aI12
aI89
aa(lp790
I85
aI43
aI64
aI32
aI49
aI62
aI95
aI90
aI51
aI11
aI5
aI4
aI89
aI0
aI79
aI13
aI23
aI34
aI65
aI69
aa(lp791
I85
aI10
aI61
aI1
aI34
aI75
aI14
aI98
aI22
aI93
aI92
aI66
aI41
aI70
aI39
aI97
aI84
aI18
aI90
aI87
aa(lp792
I30
aI11
aI88
aI4
aI24
aI80
aI12
aI54
aI92
aI77
aI46
aI57
aI51
aI82
aI1
aI0
aI55
aI76
aI29
aI64
aa(lp793
I28
aI13
aI76
aI22
aI58
aI11
aI51
aI43
aI48
aI74
aI55
aI35
aI24
aI80
aI54
aI94
aI81
aI72
aI53
aI65
aa(lp794
I92
aI62
aI20
aI97
aI56
aI70
aI72
aI59
aI94
aI87
aI50
aI47
aI82
aI40
aI28
aI13
aI45
aI71
aI75
aI80
aa(lp795
I70
aI96
aI91
aI25
aI65
aI71
aI21
aI75
aI27
aI39
aI98
aI69
aI51
aI26
aI92
aI72
aI44
aI82
aI62
aI56
aa(lp796
I56
aI84
aI58
aI31
aI6
aI95
aI9
aI98
aI76
aI14
aI51
aI54
aI44
aI65
aI78
aI83
aI30
aI80
aI22
aI86
aa(lp797
I98
aI59
aI80
aI29
aI97
aI56
aI10
aI52
aI82
aI90
aI49
aI6
aI3
aI39
aI77
aI95
aI20
aI64
aI38
aI50
aa(lp798
I75
aI27
aI47
aI60
aI12
aI81
aI71
aI66
aI68
aI0
aI72
aI26
aI13
aI74
aI61
aI77
aI37
aI29
aI44
aI73
aa(lp799
I70
aI32
aI75
aI54
aI52
aI74
aI61
aI67
aI29
aI4
aI45
aI73
aI38
aI25
aI80
aI82
aI58
aI3
aI1
aI79
aa(lp800
I59
aI51
aI5
aI75
aI96
aI94
aI54
aI86
aI34
aI57
aI43
aI21
aI88
aI27
aI46
aI53
aI64
aI90
aI76
aI28
aa(lp801
I24
aI16
aI65
aI8
aI38
aI37
aI95
aI13
aI91
aI19
aI93
aI92
aI15
aI55
aI12
aI11
aI46
aI26
aI7
aI49
aa.